(lp0
(lp1
F0.2727272727272727
aF0.7272727272727273
aa(lp2
F0.3170731707317073
aF0.6829268292682927
aa(lp3
F0.3023255813953488
aF0.6976744186046512
aa(lp4
F0.2830188679245283
aF0.7169811320754716
aa(lp5
F0.3250620347394541
aF0.674937965260546
aa(lp6
F0.22085889570552147
aF0.7791411042944786
aa(lp7
F0.060240963855421686
aF0.9397590361445783
aa(lp8
F0.37333333333333335
aF0.6266666666666667
aa(lp9
F0.3132530120481928
aF0.6867469879518072
aa(lp10
F0.16666666666666666
aF0.8333333333333334
aa(lp11
F0.18911917098445596
aF0.810880829015544
aa(lp12
F0.2777777777777778
aF0.7222222222222222
aa(lp13
F0.17525773195876287
aF0.8247422680412371
aa(lp14
F0.3300970873786408
aF0.6699029126213593
aa(lp15
F0.25806451612903225
aF0.7419354838709677
aa(lp16
F0.21774193548387097
aF0.782258064516129
aa(lp17
F0.48
aF0.52
aa(lp18
F0.3389830508474576
aF0.6610169491525424
aa(lp19
F0.2878787878787879
aF0.7121212121212122
aa(lp20
F0.4583333333333333
aF0.5416666666666666
aa(lp21
F0.23636363636363636
aF0.7636363636363637
aa(lp22
F0.10416666666666667
aF0.8958333333333334
aa(lp23
F0.4143302180685358
aF0.5856697819314641
aa(lp24
F0.21739130434782608
aF0.782608695652174
aa(lp25
F0.28888888888888886
aF0.7111111111111111
aa(lp26
F0.4326923076923077
aF0.5673076923076923
aa(lp27
F0.2
aF0.8
aa(lp28
F0.4482758620689655
aF0.5517241379310345
aa(lp29
F0.27450980392156865
aF0.7254901960784313
aa(lp30
F0.23469387755102042
aF0.7653061224489796
aa(lp31
F0.3898305084745763
aF0.6101694915254238
aa(lp32
F0.3783783783783784
aF0.6216216216216216
aa(lp33
F0.4015151515151515
aF0.5984848484848485
aa(lp34
F0.07563025210084033
aF0.9243697478991597
aa(lp35
F0.3013698630136986
aF0.6986301369863014
aa(lp36
F0.3007518796992481
aF0.6992481203007519
aa(lp37
F0.07913669064748201
aF0.920863309352518
aa(lp38
F0.22777777777777777
aF0.7722222222222223
aa(lp39
F0.3548387096774194
aF0.6451612903225806
aa(lp40
F0.6304347826086957
aF0.3695652173913043
aa(lp41
F0.012024048096192385
aF0.9879759519038076
aa(lp42
F0.31666666666666665
aF0.6833333333333333
aa(lp43
F0.1953125
aF0.8046875
aa(lp44
F0.3220338983050847
aF0.6779661016949152
aa(lp45
F0.16981132075471697
aF0.8301886792452831
aa(lp46
F0.4880952380952381
aF0.5119047619047619
aa(lp47
F0.28
aF0.72
aa(lp48
F0.42424242424242425
aF0.5757575757575758
aa(lp49
F0.5759162303664922
aF0.42408376963350786
aa(lp50
F0.27941176470588236
aF0.7205882352941176
aa(lp51
F0.2857142857142857
aF0.7142857142857143
aa(lp52
F0.1875
aF0.8125
aa(lp53
F0.5052631578947369
aF0.49473684210526314
aa(lp54
F0.30612244897959184
aF0.6938775510204082
aa(lp55
F0.45161290322580644
aF0.5483870967741935
aa(lp56
F0.20512820512820512
aF0.7948717948717948
aa(lp57
F0.35294117647058826
aF0.6470588235294118
aa(lp58
F0.21775898520084566
aF0.7822410147991543
aa(lp59
F0.3524590163934426
aF0.6475409836065574
aa(lp60
F0.2564102564102564
aF0.7435897435897436
aa(lp61
F0.4431137724550898
aF0.5568862275449101
aa(lp62
F0.28888888888888886
aF0.7111111111111111
aa(lp63
F0.3793103448275862
aF0.6206896551724138
aa(lp64
F0.41975308641975306
aF0.5802469135802469
aa(lp65
F0.42857142857142855
aF0.5714285714285714
aa(lp66
F0.23255813953488372
aF0.7674418604651163
aa(lp67
F0.23958333333333334
aF0.7604166666666666
aa(lp68
F0.18627450980392157
aF0.8137254901960784
aa(lp69
F0.2087378640776699
aF0.7912621359223301
aa(lp70
F0.25892857142857145
aF0.7410714285714286
aa(lp71
F0.35526315789473684
aF0.6447368421052632
aa(lp72
F0.23054755043227665
aF0.7694524495677233
aa(lp73
F0.20212765957446807
aF0.7978723404255319
aa(lp74
F0.1308411214953271
aF0.8691588785046729
aa(lp75
F0.3680555555555556
aF0.6319444444444444
aa(lp76
F0.3018867924528302
aF0.6981132075471698
aa(lp77
F0.03826086956521739
aF0.9617391304347827
aa(lp78
F0.32656514382402707
aF0.6734348561759729
aa(lp79
F0.5075757575757576
aF0.49242424242424243
aa(lp80
F0.15254237288135594
aF0.847457627118644
aa(lp81
F0.3793103448275862
aF0.6206896551724138
aa(lp82
F0.33
aF0.67
aa(lp83
F0.22
aF0.78
aa(lp84
F0.4634146341463415
aF0.5365853658536586
aa(lp85
F0.37037037037037035
aF0.6296296296296297
aa(lp86
F0.25742574257425743
aF0.7425742574257426
aa(lp87
F0.36923076923076925
aF0.6307692307692307
aa(lp88
F0.45652173913043476
aF0.5434782608695652
aa(lp89
F0.47058823529411764
aF0.5294117647058824
aa(lp90
F0.31343283582089554
aF0.6865671641791045
aa(lp91
F0.21739130434782608
aF0.782608695652174
aa(lp92
F0.2833333333333333
aF0.7166666666666667
aa(lp93
F0.26153846153846155
aF0.7384615384615385
aa(lp94
F0.23404255319148937
aF0.7659574468085106
aa(lp95
F0.23655913978494625
aF0.7634408602150538
aa(lp96
F0.3404255319148936
aF0.6595744680851063
aa(lp97
F0.36
aF0.64
aa(lp98
F0.4
aF0.6
aa(lp99
F0.3333333333333333
aF0.6666666666666666
aa(lp100
F0.10416666666666667
aF0.8958333333333334
aa(lp101
F0.4666666666666667
aF0.5333333333333333
aa(lp102
F0.16981132075471697
aF0.8301886792452831
aa(lp103
F0.27014218009478674
aF0.7298578199052133
aa(lp104
F0.24847746650426308
aF0.7515225334957369
aa(lp105
F0.32
aF0.68
aa(lp106
F0.23278688524590163
aF0.7672131147540984
aa(lp107
F0.47368421052631576
aF0.5263157894736842
aa(lp108
F0.2708333333333333
aF0.7291666666666666
aa(lp109
F0.17916666666666667
aF0.8208333333333333
aa(lp110
F0.15384615384615385
aF0.8461538461538461
aa(lp111
F0.46808510638297873
aF0.5319148936170213
aa(lp112
F0.49586776859504134
aF0.5041322314049587
aa(lp113
F0.32
aF0.68
aa(lp114
F0.3027027027027027
aF0.6972972972972973
aa(lp115
F0.4727272727272727
aF0.5272727272727272
aa(lp116
F0.25925925925925924
aF0.7407407407407407
aa(lp117
F0.22962962962962963
aF0.7703703703703704
aa(lp118
F0.48606811145510836
aF0.5139318885448917
aa(lp119
F0.5492063492063493
aF0.4507936507936508
aa(lp120
F0.2962962962962963
aF0.7037037037037037
aa(lp121
F0.2289156626506024
aF0.7710843373493976
aa(lp122
F0.2857142857142857
aF0.7142857142857143
aa(lp123
F0.41509433962264153
aF0.5849056603773585
aa(lp124
F0.46875
aF0.53125
aa(lp125
F0.14711033274956217
aF0.8528896672504378
aa(lp126
F0.4827586206896552
aF0.5172413793103449
aa(lp127
F0.1875
aF0.8125
aa(lp128
F0.2
aF0.8
aa(lp129
F0.14925373134328357
aF0.8507462686567164
aa(lp130
F0.4528301886792453
aF0.5471698113207547
aa(lp131
F0.3561643835616438
aF0.6438356164383562
aa(lp132
F0.4583333333333333
aF0.5416666666666666
aa(lp133
F0.4601226993865031
aF0.5398773006134969
aa(lp134
F0.22033898305084745
aF0.7796610169491526
aa(lp135
F0.20454545454545456
aF0.7954545454545454
aa(lp136
F0.25806451612903225
aF0.7419354838709677
aa(lp137
F0.2765957446808511
aF0.723404255319149
aa(lp138
F0.1
aF0.9
aa(lp139
F0.4935064935064935
aF0.5064935064935064
aa(lp140
F0.4069119286510591
aF0.5930880713489409
aa(lp141
F0.14102564102564102
aF0.8589743589743589
aa(lp142
F0.33695652173913043
aF0.6630434782608695
aa(lp143
F0.23853211009174313
aF0.7614678899082569
aa(lp144
F0.26666666666666666
aF0.7333333333333333
aa(lp145
F0.3
aF0.7
aa(lp146
F0.26262626262626265
aF0.7373737373737373
aa(lp147
F0.32653061224489793
aF0.673469387755102
aa(lp148
F0.1891891891891892
aF0.8108108108108109
aa(lp149
F0.3349397590361446
aF0.6650602409638554
aa(lp150
F0.2185430463576159
aF0.7814569536423841
aa(lp151
F0.35714285714285715
aF0.6428571428571429
aa(lp152
F0.2289156626506024
aF0.7710843373493976
aa(lp153
F0.3076923076923077
aF0.6923076923076923
aa(lp154
F0.33707865168539325
aF0.6629213483146067
aa(lp155
F0.3333333333333333
aF0.6666666666666666
aa(lp156
F0.2896174863387978
aF0.7103825136612022
aa(lp157
F0.33191489361702126
aF0.6680851063829787
aa(lp158
F0.20454545454545456
aF0.7954545454545454
aa(lp159
F0.4444444444444444
aF0.5555555555555556
aa(lp160
F0.26865671641791045
aF0.7313432835820896
aa(lp161
F0.26785714285714285
aF0.7321428571428571
aa(lp162
F0.24324324324324326
aF0.7567567567567568
aa(lp163
F0.3375796178343949
aF0.6624203821656051
aa(lp164
F0.2903225806451613
aF0.7096774193548387
aa(lp165
F0.4117647058823529
aF0.5882352941176471
aa(lp166
F0.291970802919708
aF0.708029197080292
aa(lp167
F0.25396825396825395
aF0.746031746031746
aa(lp168
F0.16
aF0.84
aa(lp169
F0.2072072072072072
aF0.7927927927927928
aa(lp170
F0.4117647058823529
aF0.5882352941176471
aa(lp171
F0.4315068493150685
aF0.5684931506849316
aa(lp172
F0.5
aF0.5
aa(lp173
F0.36082474226804123
aF0.6391752577319587
aa(lp174
F0.44660194174757284
aF0.5533980582524272
aa(lp175
F0.42696629213483145
aF0.5730337078651685
aa(lp176
F0.5172413793103449
aF0.4827586206896552
aa(lp177
F0.2727272727272727
aF0.7272727272727273
aa(lp178
F0.4666666666666667
aF0.5333333333333333
aa(lp179
F0.5724137931034483
aF0.42758620689655175
aa(lp180
F0.25925925925925924
aF0.7407407407407407
aa(lp181
F0.2722222222222222
aF0.7277777777777777
aa(lp182
F0.44594594594594594
aF0.5540540540540541
aa(lp183
F0.3235294117647059
aF0.6764705882352942
aa(lp184
F0.30434782608695654
aF0.6956521739130435
aa(lp185
F0.2653061224489796
aF0.7346938775510204
aa(lp186
F0.00683371298405467
aF0.9931662870159453
aa(lp187
F0.4246575342465753
aF0.5753424657534246
aa(lp188
F0.12403100775193798
aF0.875968992248062
aa(lp189
F0.5287356321839081
aF0.47126436781609193
aa(lp190
F0.30612244897959184
aF0.6938775510204082
aa(lp191
F0.18181818181818182
aF0.8181818181818182
aa(lp192
F0.5
aF0.5
aa(lp193
F0.28
aF0.72
aa(lp194
F0.02537182852143482
aF0.9746281714785652
aa(lp195
F0.3817204301075269
aF0.6182795698924731
aa(lp196
F0.31868131868131866
aF0.6813186813186813
aa(lp197
F0.3287037037037037
aF0.6712962962962963
aa(lp198
F0.24786324786324787
aF0.7521367521367521
aa(lp199
F0.5394736842105263
aF0.4605263157894737
aa(lp200
F0.37404580152671757
aF0.6259541984732825
aa(lp201
F0.3088235294117647
aF0.6911764705882353
aa(lp202
F0.3076923076923077
aF0.6923076923076923
aa(lp203
F0.39106145251396646
aF0.6089385474860335
aa(lp204
F0.27631578947368424
aF0.7236842105263158
aa(lp205
F0.36666666666666664
aF0.6333333333333333
aa(lp206
F0.4166666666666667
aF0.5833333333333334
aa(lp207
F0.30660377358490565
aF0.6933962264150944
aa(lp208
F0.47368421052631576
aF0.5263157894736842
aa(lp209
F0.4642857142857143
aF0.5357142857142857
aa(lp210
F0.2878787878787879
aF0.7121212121212122
aa(lp211
F0.39814814814814814
aF0.6018518518518519
aa(lp212
F0.30701754385964913
aF0.6929824561403509
aa(lp213
F0.4411764705882353
aF0.5588235294117647
aa(lp214
F0.42857142857142855
aF0.5714285714285714
aa(lp215
F0.33653846153846156
aF0.6634615384615384
aa(lp216
F0.4630681818181818
aF0.5369318181818182
aa(lp217
F0.2222222222222222
aF0.7777777777777778
aa(lp218
F0.4143835616438356
aF0.5856164383561644
aa(lp219
F0.25
aF0.75
aa(lp220
F0.3424657534246575
aF0.6575342465753424
aa(lp221
F0.17647058823529413
aF0.8235294117647058
aa(lp222
F0.20833333333333334
aF0.7916666666666666
aa(lp223
F0.01002004008016032
aF0.9899799599198397
aa(lp224
F0.3333333333333333
aF0.6666666666666666
aa(lp225
F0.3291139240506329
aF0.6708860759493671
aa(lp226
F0.2788104089219331
aF0.7211895910780669
aa(lp227
F0.28804347826086957
aF0.7119565217391305
aa(lp228
F0.4
aF0.6
aa(lp229
F0.26262626262626265
aF0.7373737373737373
aa(lp230
F0.18023255813953487
aF0.8197674418604651
aa(lp231
F0.25806451612903225
aF0.7419354838709677
aa(lp232
F0.25862068965517243
aF0.7413793103448276
aa(lp233
F0.3018867924528302
aF0.6981132075471698
aa(lp234
F0.5
aF0.5
aa(lp235
F0.4931506849315068
aF0.5068493150684932
aa(lp236
F0.5084745762711864
aF0.4915254237288136
aa(lp237
F0.23809523809523808
aF0.7619047619047619
aa(lp238
F0.30434782608695654
aF0.6956521739130435
aa(lp239
F0.44871794871794873
aF0.5512820512820513
aa(lp240
F0.288135593220339
aF0.711864406779661
aa(lp241
F0.07717041800643087
aF0.9228295819935691
aa(lp242
F0.38596491228070173
aF0.6140350877192983
aa(lp243
F0.2
aF0.8
aa(lp244
F0.5
aF0.5
aa(lp245
F0.25333333333333335
aF0.7466666666666667
aa(lp246
F0.12448132780082988
aF0.8755186721991701
aa(lp247
F0.15
aF0.85
aa(lp248
F0.4117647058823529
aF0.5882352941176471
aa(lp249
F0.3235294117647059
aF0.6764705882352942
aa(lp250
F0.3609022556390977
aF0.6390977443609023
aa(lp251
F0.3333333333333333
aF0.6666666666666666
aa(lp252
F0.14814814814814814
aF0.8518518518518519
aa(lp253
F0.22924901185770752
aF0.7707509881422925
aa(lp254
F0.16304347826086957
aF0.8369565217391305
aa(lp255
F0.32653061224489793
aF0.673469387755102
aa(lp256
F0.22727272727272727
aF0.7727272727272727
aa(lp257
F0.4722222222222222
aF0.5277777777777778
aa(lp258
F0.5703703703703704
aF0.42962962962962964
aa(lp259
F0.3595505617977528
aF0.6404494382022472
aa(lp260
F0.42657342657342656
aF0.5734265734265734
aa(lp261
F0.35454545454545455
aF0.6454545454545455
aa(lp262
F0.3655913978494624
aF0.6344086021505376
aa(lp263
F0.30597014925373134
aF0.6940298507462687
aa(lp264
F0.34615384615384615
aF0.6538461538461539
aa(lp265
F0.5
aF0.5
aa(lp266
F0.13513513513513514
aF0.8648648648648649
aa(lp267
F0.4222222222222222
aF0.5777777777777777
aa(lp268
F0.46875
aF0.53125
aa(lp269
F0.25316455696202533
aF0.7468354430379747
aa(lp270
F0.2765957446808511
aF0.723404255319149
aa(lp271
F0.30337078651685395
aF0.6966292134831461
aa(lp272
F0.21238938053097345
aF0.7876106194690266
aa(lp273
F0.43169398907103823
aF0.5683060109289617
aa(lp274
F0.18666666666666668
aF0.8133333333333334
aa(lp275
F0.2564102564102564
aF0.7435897435897436
aa(lp276
F0.3092105263157895
aF0.6907894736842105
aa(lp277
F0.328125
aF0.671875
aa(lp278
F0.2465753424657534
aF0.7534246575342466
aa(lp279
F0.4666666666666667
aF0.5333333333333333
aa(lp280
F0.5151515151515151
aF0.48484848484848486
aa(lp281
F0.509090909090909
aF0.4909090909090909
aa(lp282
F0.33695652173913043
aF0.6630434782608695
aa(lp283
F0.5657894736842105
aF0.4342105263157895
aa(lp284
F0.37209302325581395
aF0.627906976744186
aa(lp285
F0.4074074074074074
aF0.5925925925925926
aa(lp286
F0.31004366812227074
aF0.6899563318777293
aa(lp287
F0.20408163265306123
aF0.7959183673469388
aa(lp288
F0.2230769230769231
aF0.7769230769230769
aa(lp289
F0.28289473684210525
aF0.7171052631578947
aa(lp290
F0.4514285714285714
aF0.5485714285714286
aa(lp291
F0.26436781609195403
aF0.735632183908046
aa(lp292
F0.27906976744186046
aF0.7209302325581395
aa(lp293
F0.5396825396825397
aF0.4603174603174603
aa(lp294
F0.24175824175824176
aF0.7582417582417582
aa(lp295
F0.3409090909090909
aF0.6590909090909091
aa(lp296
F0.45918367346938777
aF0.5408163265306123
aa(lp297
F0.11428571428571428
aF0.8857142857142857
aa(lp298
F0.3924050632911392
aF0.6075949367088608
aa(lp299
F0.2571428571428571
aF0.7428571428571429
aa(lp300
F0.0625
aF0.9375
aa(lp301
F0.5555555555555556
aF0.4444444444444444
aa(lp302
F0.20481927710843373
aF0.7951807228915663
aa(lp303
F0.27586206896551724
aF0.7241379310344828
aa(lp304
F0.4189189189189189
aF0.581081081081081
aa(lp305
F0.24
aF0.76
aa(lp306
F0.34285714285714286
aF0.6571428571428571
aa(lp307
F0.35
aF0.65
aa(lp308
F0.228
aF0.772
aa(lp309
F0.008602150537634409
aF0.9913978494623656
aa(lp310
F0.18968935888962327
aF0.8103106411103768
aa(lp311
F0.2826086956521739
aF0.717391304347826
aa(lp312
F0.48656716417910445
aF0.5134328358208955
aa(lp313
F0.1694915254237288
aF0.8305084745762712
aa(lp314
F0.29777777777777775
aF0.7022222222222222
aa(lp315
F0.18018018018018017
aF0.8198198198198198
aa(lp316
F0.25925925925925924
aF0.7407407407407407
aa(lp317
F0.17647058823529413
aF0.8235294117647058
aa(lp318
F0.4036697247706422
aF0.5963302752293578
aa(lp319
F0.4835164835164835
aF0.5164835164835165
aa(lp320
F0.10472972972972973
aF0.8952702702702703
aa(lp321
F0.27472527472527475
aF0.7252747252747253
aa(lp322
F0.20253164556962025
aF0.7974683544303798
aa(lp323
F0.27631578947368424
aF0.7236842105263158
aa(lp324
F0.24324324324324326
aF0.7567567567567568
aa(lp325
F0.3448275862068966
aF0.6551724137931034
aa(lp326
F0.17105263157894737
aF0.8289473684210527
aa(lp327
F0.2857142857142857
aF0.7142857142857143
aa(lp328
F0.4
aF0.6
aa(lp329
F0.25
aF0.75
aa(lp330
F0.43243243243243246
aF0.5675675675675675
aa(lp331
F0.24479166666666666
aF0.7552083333333334
aa(lp332
F0.24489795918367346
aF0.7551020408163265
aa(lp333
F0.12149532710280374
aF0.8785046728971962
aa(lp334
F0.4552238805970149
aF0.5447761194029851
aa(lp335
F0.23684210526315788
aF0.7631578947368421
aa(lp336
F0.56
aF0.44
aa(lp337
F0.2138728323699422
aF0.7861271676300579
aa(lp338
F0.42857142857142855
aF0.5714285714285714
aa(lp339
F0.325
aF0.675
aa(lp340
F0.3163265306122449
aF0.6836734693877551
aa(lp341
F0.3275862068965517
aF0.6724137931034483
aa(lp342
F0.3080168776371308
aF0.6919831223628692
aa(lp343
F0.62
aF0.38
aa(lp344
F0.3392857142857143
aF0.6607142857142857
aa(lp345
F0.08267716535433071
aF0.9173228346456693
aa(lp346
F0.4166666666666667
aF0.5833333333333334
aa(lp347
F0.1978021978021978
aF0.8021978021978022
aa(lp348
F0.43333333333333335
aF0.5666666666666667
aa(lp349
F0.30120481927710846
aF0.6987951807228916
aa(lp350
F0.32727272727272727
aF0.6727272727272727
aa(lp351
F0.3157894736842105
aF0.6842105263157895
aa(lp352
F0.3697478991596639
aF0.6302521008403361
aa(lp353
F0.3904761904761905
aF0.6095238095238096
aa(lp354
F0.34782608695652173
aF0.6521739130434783
aa(lp355
F0.3181818181818182
aF0.6818181818181818
aa(lp356
F0.4594594594594595
aF0.5405405405405406
aa(lp357
F0.29545454545454547
aF0.7045454545454546
aa(lp358
F0.3333333333333333
aF0.6666666666666666
aa(lp359
F0.23880597014925373
aF0.7611940298507462
aa(lp360
F0.35
aF0.65
aa(lp361
F0.38372093023255816
aF0.6162790697674418
aa(lp362
F0.2641509433962264
aF0.7358490566037735
aa(lp363
F0.28717948717948716
aF0.7128205128205128
aa(lp364
F0.2645161290322581
aF0.7354838709677419
aa(lp365
F0.4659090909090909
aF0.5340909090909091
aa(lp366
F0.4377880184331797
aF0.5622119815668203
aa(lp367
F0.2619047619047619
aF0.7380952380952381
aa(lp368
F0.2463768115942029
aF0.7536231884057971
aa(lp369
F0.3103448275862069
aF0.6896551724137931
aa(lp370
F0.18181818181818182
aF0.8181818181818182
aa(lp371
F0.24242424242424243
aF0.7575757575757576
aa(lp372
F0.3786407766990291
aF0.6213592233009708
aa(lp373
F0.3620689655172414
aF0.6379310344827587
aa(lp374
F0.26973684210526316
aF0.7302631578947368
aa(lp375
F0.34782608695652173
aF0.6521739130434783
aa(lp376
F0.3392857142857143
aF0.6607142857142857
aa(lp377
F0.4266666666666667
aF0.5733333333333334
aa(lp378
F0.3
aF0.7
aa(lp379
F0.5263157894736842
aF0.47368421052631576
aa(lp380
F0.16923076923076924
aF0.8307692307692308
aa(lp381
F0.48214285714285715
aF0.5178571428571429
aa(lp382
F0.3377777777777778
aF0.6622222222222223
aa(lp383
F0.2945590994371482
aF0.7054409005628518
aa(lp384
F0.4805194805194805
aF0.5194805194805194
aa(lp385
F0.36
aF0.64
aa(lp386
F0.5794871794871795
aF0.4205128205128205
aa(lp387
F0.5512820512820513
aF0.44871794871794873
aa(lp388
F0.27631578947368424
aF0.7236842105263158
aa(lp389
F0.33816425120772947
aF0.6618357487922706
aa(lp390
F0.22674418604651161
aF0.7732558139534884
aa(lp391
F0.224
aF0.776
aa(lp392
F0.27358490566037735
aF0.7264150943396226
aa(lp393
F0.5555555555555556
aF0.4444444444444444
aa(lp394
F0.36231884057971014
aF0.6376811594202898
aa(lp395
F0.3469387755102041
aF0.6530612244897959
aa(lp396
F0.24509803921568626
aF0.7549019607843137
aa(lp397
F0.22580645161290322
aF0.7741935483870968
aa(lp398
F0.22429906542056074
aF0.7757009345794392
aa(lp399
F0.21348314606741572
aF0.7865168539325843
aa(lp400
F0.31216931216931215
aF0.6878306878306878
aa(lp401
F0.5825242718446602
aF0.4174757281553398
aa(lp402
F0.35282651072124754
aF0.6471734892787524
aa(lp403
F0.08174386920980926
aF0.9182561307901907
aa(lp404
F0.5
aF0.5
aa(lp405
F0.136986301369863
aF0.863013698630137
aa(lp406
F0.2736842105263158
aF0.7263157894736842
aa(lp407
F0.2323943661971831
aF0.7676056338028169
aa(lp408
F0.3191489361702128
aF0.6808510638297872
aa(lp409
F0.37142857142857144
aF0.6285714285714286
aa(lp410
F0.28205128205128205
aF0.717948717948718
aa(lp411
F0.3466666666666667
aF0.6533333333333333
aa(lp412
F0.14189189189189189
aF0.8581081081081081
aa(lp413
F0.25
aF0.75
aa(lp414
F0.25757575757575757
aF0.7424242424242424
aa(lp415
F0.5317460317460317
aF0.46825396825396826
aa(lp416
F0.3884297520661157
aF0.6115702479338843
aa(lp417
F0.3565217391304348
aF0.6434782608695652
aa(lp418
F0.20689655172413793
aF0.7931034482758621
aa(lp419
F0.3139240506329114
aF0.6860759493670886
aa(lp420
F0.16666666666666666
aF0.8333333333333334
aa(lp421
F0.42386831275720166
aF0.5761316872427984
aa(lp422
F0.3151515151515151
aF0.6848484848484848
aa(lp423
F0.36538461538461536
aF0.6346153846153846
aa(lp424
F0.25
aF0.75
aa(lp425
F0.18226600985221675
aF0.8177339901477833
aa(lp426
F0.17391304347826086
aF0.8260869565217391
aa(lp427
F0.25757575757575757
aF0.7424242424242424
aa(lp428
F0.3220338983050847
aF0.6779661016949152
aa(lp429
F0.3902439024390244
aF0.6097560975609756
aa(lp430
F0.26373626373626374
aF0.7362637362637363
aa(lp431
F0.2631578947368421
aF0.7368421052631579
aa(lp432
F0.36764705882352944
aF0.6323529411764706
aa(lp433
F0.2962962962962963
aF0.7037037037037037
aa(lp434
F0.38095238095238093
aF0.6190476190476191
aa(lp435
F0.3146067415730337
aF0.6853932584269663
aa(lp436
F0.32786885245901637
aF0.6721311475409836
aa(lp437
F0.2696629213483146
aF0.7303370786516854
aa(lp438
F0.36538461538461536
aF0.6346153846153846
aa(lp439
F0.37681159420289856
aF0.6231884057971014
aa(lp440
F0.39080459770114945
aF0.6091954022988506
aa(lp441
F0.29797979797979796
aF0.702020202020202
aa(lp442
F0.09626436781609195
aF0.9037356321839081
aa(lp443
F0.2948717948717949
aF0.7051282051282052
aa(lp444
F0.33112582781456956
aF0.6688741721854304
aa(lp445
F0.12857142857142856
aF0.8714285714285714
aa(lp446
F0.41935483870967744
aF0.5806451612903226
aa(lp447
F0.41509433962264153
aF0.5849056603773585
aa(lp448
F0.2913907284768212
aF0.7086092715231788
aa(lp449
F0.3697478991596639
aF0.6302521008403361
aa(lp450
F0.2638888888888889
aF0.7361111111111112
aa(lp451
F0.41228070175438597
aF0.5877192982456141
aa(lp452
F0.19760479041916168
aF0.8023952095808383
aa(lp453
F0.2571428571428571
aF0.7428571428571429
aa(lp454
F0.07413793103448275
aF0.9258620689655173
aa(lp455
F0.32
aF0.68
aa(lp456
F0.17142857142857143
aF0.8285714285714286
aa(lp457
F0.11526946107784432
aF0.8847305389221557
aa(lp458
F0.26136363636363635
aF0.7386363636363636
aa(lp459
F0.2755905511811024
aF0.7244094488188977
aa(lp460
F0.2
aF0.8
aa(lp461
F0.3333333333333333
aF0.6666666666666666
aa(lp462
F0.3939393939393939
aF0.6060606060606061
aa(lp463
F0.2
aF0.8
aa(lp464
F0.28475336322869954
aF0.7152466367713004
aa(lp465
F0.2052980132450331
aF0.7947019867549668
aa(lp466
F0.4329896907216495
aF0.5670103092783505
aa(lp467
F0.22255192878338279
aF0.7774480712166172
aa(lp468
F0.46153846153846156
aF0.5384615384615384
aa(lp469
F0.3484848484848485
aF0.6515151515151515
aa(lp470
F0.16911764705882354
aF0.8308823529411765
aa(lp471
F0.24390243902439024
aF0.7560975609756098
aa(lp472
F0.20125786163522014
aF0.7987421383647799
aa(lp473
F0.1981981981981982
aF0.8018018018018018
aa(lp474
F0.39215686274509803
aF0.6078431372549019
aa(lp475
F0.3013698630136986
aF0.6986301369863014
aa(lp476
F0.292358803986711
aF0.707641196013289
aa(lp477
F0.24
aF0.76
aa(lp478
F0.3225806451612903
aF0.6774193548387096
aa(lp479
F0.5217391304347826
aF0.4782608695652174
aa(lp480
F0.1450381679389313
aF0.8549618320610687
aa(lp481
F0.4426229508196721
aF0.5573770491803278
aa(lp482
F0.4444444444444444
aF0.5555555555555556
aa(lp483
F0.48
aF0.52
aa(lp484
F0.20754716981132076
aF0.7924528301886793
aa(lp485
F0.15789473684210525
aF0.8421052631578947
aa(lp486
F0.26545454545454544
aF0.7345454545454545
aa(lp487
F0.13636363636363635
aF0.8636363636363636
aa(lp488
F0.2926829268292683
aF0.7073170731707317
aa(lp489
F0.32
aF0.68
aa(lp490
F0.16666666666666666
aF0.8333333333333334
aa(lp491
F0.47282608695652173
aF0.5271739130434783
aa(lp492
F0.12698412698412698
aF0.873015873015873
aa(lp493
F0.34375
aF0.65625
aa(lp494
F0.35714285714285715
aF0.6428571428571429
aa(lp495
F0.6105263157894737
aF0.3894736842105263
aa(lp496
F0.43209876543209874
aF0.5679012345679012
aa(lp497
F0.4126984126984127
aF0.5873015873015873
aa(lp498
F0.039473684210526314
aF0.9605263157894737
aa(lp499
F0.12173913043478261
aF0.8782608695652174
aa(lp500
F0.3157894736842105
aF0.6842105263157895
aa(lp501
F0.511520737327189
aF0.48847926267281105
aa(lp502
F0.3368421052631579
aF0.6631578947368421
aa(lp503
F0.30578512396694213
aF0.6942148760330579
aa(lp504
F0.22857142857142856
aF0.7714285714285715
aa(lp505
F0.3764705882352941
aF0.6235294117647059
aa(lp506
F0.19230769230769232
aF0.8076923076923077
aa(lp507
F0.26666666666666666
aF0.7333333333333333
aa(lp508
F0.22772277227722773
aF0.7722772277227723
aa(lp509
F0.1875
aF0.8125
aa(lp510
F0.24675324675324675
aF0.7532467532467533
aa(lp511
F0.5154639175257731
aF0.4845360824742268
aa(lp512
F0.6274509803921569
aF0.37254901960784315
aa(lp513
F0.17346938775510204
aF0.826530612244898
aa(lp514
F0.34545454545454546
aF0.6545454545454545
aa(lp515
F0.3333333333333333
aF0.6666666666666666
aa(lp516
F0.2549019607843137
aF0.7450980392156863
aa(lp517
F0.39622641509433965
aF0.6037735849056604
aa(lp518
F0.46153846153846156
aF0.5384615384615384
aa(lp519
F0.2692307692307692
aF0.7307692307692307
aa(lp520
F0.3783783783783784
aF0.6216216216216216
aa(lp521
F0.04332129963898917
aF0.9566787003610109
aa(lp522
F0.30718954248366015
aF0.6928104575163399
aa(lp523
F0.3076923076923077
aF0.6923076923076923
aa(lp524
F0.10869565217391304
aF0.8913043478260869
aa(lp525
F0.07894736842105263
aF0.9210526315789473
aa(lp526
F0.3374233128834356
aF0.6625766871165644
aa(lp527
F0.5062761506276151
aF0.49372384937238495
aa(lp528
F0.19230769230769232
aF0.8076923076923077
aa(lp529
F0.3173076923076923
aF0.6826923076923077
aa(lp530
F0.3651685393258427
aF0.6348314606741573
aa(lp531
F0.2746478873239437
aF0.7253521126760564
aa(lp532
F0.425
aF0.575
aa(lp533
F0.30113636363636365
aF0.6988636363636364
aa(lp534
F0.3617021276595745
aF0.6382978723404256
aa(lp535
F0.20588235294117646
aF0.7941176470588235
aa(lp536
F0.10344827586206896
aF0.896551724137931
aa(lp537
F0.5982142857142857
aF0.4017857142857143
aa(lp538
F0.5878003696857671
aF0.4121996303142329
aa(lp539
F0.3114754098360656
aF0.6885245901639344
aa(lp540
F0.30288461538461536
aF0.6971153846153846
aa(lp541
F0.39655172413793105
aF0.603448275862069
aa(lp542
F0.2689075630252101
aF0.7310924369747899
aa(lp543
F0.3349282296650718
aF0.6650717703349283
aa(lp544
F0.22857142857142856
aF0.7714285714285715
aa(lp545
F0.4230769230769231
aF0.5769230769230769
aa(lp546
F0.4126984126984127
aF0.5873015873015873
aa(lp547
F0.1878453038674033
aF0.8121546961325967
aa(lp548
F0.2553191489361702
aF0.7446808510638298
aa(lp549
F0.23076923076923078
aF0.7692307692307693
aa(lp550
F0.49044585987261147
aF0.5095541401273885
aa(lp551
F0.19402985074626866
aF0.8059701492537313
aa(lp552
F0.25806451612903225
aF0.7419354838709677
aa(lp553
F0.08385093167701864
aF0.9161490683229814
aa(lp554
F0.34558823529411764
aF0.6544117647058824
aa(lp555
F0.23036649214659685
aF0.7696335078534031
aa(lp556
F0.4166666666666667
aF0.5833333333333334
aa(lp557
F0.27722772277227725
aF0.7227722772277227
aa(lp558
F0.2608695652173913
aF0.7391304347826086
aa(lp559
F0.3404255319148936
aF0.6595744680851063
aa(lp560
F0.30973451327433627
aF0.6902654867256637
aa(lp561
F0.3783783783783784
aF0.6216216216216216
aa(lp562
F0.23529411764705882
aF0.7647058823529411
aa(lp563
F0.391304347826087
aF0.6086956521739131
aa(lp564
F0.27741935483870966
aF0.7225806451612903
aa(lp565
F0.3620689655172414
aF0.6379310344827587
aa(lp566
F0.20512820512820512
aF0.7948717948717948
aa(lp567
F0.38461538461538464
aF0.6153846153846154
aa(lp568
F0.4248927038626609
aF0.575107296137339
aa(lp569
F0.21875
aF0.78125
aa(lp570
F0.22344322344322345
aF0.7765567765567766
aa(lp571
F0.3018867924528302
aF0.6981132075471698
aa(lp572
F0.41025641025641024
aF0.5897435897435898
aa(lp573
F0.21428571428571427
aF0.7857142857142857
aa(lp574
F0.3780487804878049
aF0.6219512195121951
aa(lp575
F0.29545454545454547
aF0.7045454545454546
aa(lp576
F0.39473684210526316
aF0.6052631578947368
aa(lp577
F0.13394495412844037
aF0.8660550458715597
aa(lp578
F0.21951219512195122
aF0.7804878048780488
aa(lp579
F0.5633802816901409
aF0.43661971830985913
aa(lp580
F0.384
aF0.616
aa(lp581
F0.4981684981684982
aF0.5018315018315018
aa(lp582
F0.4857142857142857
aF0.5142857142857142
aa(lp583
F0.3253968253968254
aF0.6746031746031746
aa(lp584
F0.35185185185185186
aF0.6481481481481481
aa(lp585
F0.2627118644067797
aF0.7372881355932204
aa(lp586
F0.20610687022900764
aF0.7938931297709924
aa(lp587
F0.3333333333333333
aF0.6666666666666666
aa(lp588
F0.3922413793103448
aF0.6077586206896551
aa(lp589
F0.5043731778425656
aF0.4956268221574344
aa(lp590
F0.3916083916083916
aF0.6083916083916084
aa(lp591
F0.4666666666666667
aF0.5333333333333333
aa(lp592
F0.22077922077922077
aF0.7792207792207793
aa(lp593
F0.36363636363636365
aF0.6363636363636364
aa(lp594
F0.18354430379746836
aF0.8164556962025317
aa(lp595
F0.208
aF0.792
aa(lp596
F0.23636363636363636
aF0.7636363636363637
aa(lp597
F0.30434782608695654
aF0.6956521739130435
aa(lp598
F0.248
aF0.752
aa(lp599
F0.4714285714285714
aF0.5285714285714286
aa(lp600
F0.2682926829268293
aF0.7317073170731707
aa(lp601
F0.02459016393442623
aF0.9754098360655737
aa(lp602
F0.5182186234817814
aF0.4817813765182186
aa(lp603
F0.22527472527472528
aF0.7747252747252747
aa(lp604
F0.328125
aF0.671875
aa(lp605
F0.22699386503067484
aF0.7730061349693251
aa(lp606
F0.348993288590604
aF0.6510067114093959
aa(lp607
F0.056818181818181816
aF0.9431818181818182
aa(lp608
F0.3275862068965517
aF0.6724137931034483
aa(lp609
F0.23655913978494625
aF0.7634408602150538
aa(lp610
F0.27
aF0.73
aa(lp611
F0.10434782608695652
aF0.8956521739130435
aa(lp612
F0.006823351023502654
aF0.9931766489764974
aa(lp613
F0.19834710743801653
aF0.8016528925619835
aa(lp614
F0.19148936170212766
aF0.8085106382978723
aa(lp615
F0.2913907284768212
aF0.7086092715231788
aa(lp616
F0.3707865168539326
aF0.6292134831460674
aa(lp617
F0.3503184713375796
aF0.6496815286624203
aa(lp618
F0.01195219123505976
aF0.9880478087649402
aa(lp619
F0.25252525252525254
aF0.7474747474747475
aa(lp620
F0.20192307692307693
aF0.7980769230769231
aa(lp621
F0.3125
aF0.6875
aa(lp622
F0.20603015075376885
aF0.7939698492462312
aa(lp623
F0.34459459459459457
aF0.6554054054054054
aa(lp624
F0.23846153846153847
aF0.7615384615384615
aa(lp625
F0.1907514450867052
aF0.8092485549132948
aa(lp626
F0.3148148148148148
aF0.6851851851851852
aa(lp627
F0.0
aF1.0
aa(lp628
F0.010238907849829351
aF0.9897610921501706
aa(lp629
F0.2830188679245283
aF0.7169811320754716
aa(lp630
F0.288135593220339
aF0.711864406779661
aa(lp631
F0.1509433962264151
aF0.8490566037735849
aa(lp632
F0.3181818181818182
aF0.6818181818181818
aa(lp633
F0.05649717514124294
aF0.943502824858757
aa(lp634
F0.38235294117647056
aF0.6176470588235294
aa(lp635
F0.032362459546925564
aF0.9676375404530745
aa(lp636
F0.15053763440860216
aF0.8494623655913979
aa(lp637
F0.3939393939393939
aF0.6060606060606061
aa(lp638
F0.5
aF0.5
aa(lp639
F0.47560975609756095
aF0.524390243902439
aa(lp640
F0.1827956989247312
aF0.8172043010752689
aa(lp641
F0.25925925925925924
aF0.7407407407407407
aa(lp642
F0.125
aF0.875
aa(lp643
F0.031443298969072164
aF0.9685567010309278
aa(lp644
F0.34146341463414637
aF0.6585365853658537
aa(lp645
F0.15714285714285714
aF0.8428571428571429
aa(lp646
F0.21666666666666667
aF0.7833333333333333
aa(lp647
F0.38461538461538464
aF0.6153846153846154
aa(lp648
F0.1746031746031746
aF0.8253968253968254
aa(lp649
F0.23529411764705882
aF0.7647058823529411
aa(lp650
F0.26459143968871596
aF0.7354085603112841
aa(lp651
F0.2909090909090909
aF0.7090909090909091
aa(lp652
F0.3333333333333333
aF0.6666666666666666
aa(lp653
F0.3717948717948718
aF0.6282051282051282
aa(lp654
F0.15822784810126583
aF0.8417721518987342
aa(lp655
F0.3333333333333333
aF0.6666666666666666
aa(lp656
F0.3333333333333333
aF0.6666666666666666
aa(lp657
F0.24242424242424243
aF0.7575757575757576
aa(lp658
F0.12222222222222222
aF0.8777777777777778
aa(lp659
F0.2765957446808511
aF0.723404255319149
aa(lp660
F0.29694323144104806
aF0.7030567685589519
aa(lp661
F0.03314917127071823
aF0.9668508287292817
aa(lp662
F0.11290322580645161
aF0.8870967741935484
aa(lp663
F0.29508196721311475
aF0.7049180327868853
aa(lp664
F0.15463917525773196
aF0.845360824742268
aa(lp665
F0.16972477064220184
aF0.8302752293577982
aa(lp666
F0.2064516129032258
aF0.7935483870967742
aa(lp667
F0.47706422018348627
aF0.5229357798165137
aa(lp668
F0.4090909090909091
aF0.5909090909090909
aa(lp669
F0.20318725099601595
aF0.796812749003984
aa(lp670
F0.009070294784580499
aF0.9909297052154195
aa(lp671
F0.018819503849443968
aF0.981180496150556
aa(lp672
F0.20540540540540542
aF0.7945945945945946
aa(lp673
F0.26141078838174275
aF0.7385892116182573
aa(lp674
F0.20987654320987653
aF0.7901234567901234
aa(lp675
F0.18867924528301888
aF0.8113207547169812
aa(lp676
F0.275
aF0.725
aa(lp677
F0.2608695652173913
aF0.7391304347826086
aa(lp678
F0.2054794520547945
aF0.7945205479452054
aa(lp679
F0.2647058823529412
aF0.7352941176470589
aa(lp680
F0.25471698113207547
aF0.7452830188679245
aa(lp681
F0.23303834808259588
aF0.7669616519174042
aa(lp682
F0.14925373134328357
aF0.8507462686567164
aa(lp683
F0.021739130434782608
aF0.9782608695652174
aa(lp684
F0.22419928825622776
aF0.7758007117437722
aa(lp685
F0.2484076433121019
aF0.7515923566878981
aa(lp686
F0.0006872852233676976
aF0.9993127147766323
aa(lp687
F0.21794871794871795
aF0.782051282051282
aa(lp688
F0.35185185185185186
aF0.6481481481481481
aa(lp689
F0.34375
aF0.65625
aa(lp690
F0.0035842293906810036
aF0.996415770609319
aa(lp691
F0.1885245901639344
aF0.8114754098360656
aa(lp692
F0.23626373626373626
aF0.7637362637362637
aa(lp693
F0.17486338797814208
aF0.825136612021858
aa(lp694
F0.33980582524271846
aF0.6601941747572816
aa(lp695
F0.47058823529411764
aF0.5294117647058824
aa(lp696
F0.19166666666666668
aF0.8083333333333333
aa(lp697
F0.216
aF0.784
aa(lp698
F0.21348314606741572
aF0.7865168539325843
aa(lp699
F0.2981366459627329
aF0.7018633540372671
aa(lp700
F0.020833333333333332
aF0.9791666666666666
aa(lp701
F0.11494252873563218
aF0.8850574712643678
aa(lp702
F0.10588235294117647
aF0.8941176470588236
aa(lp703
F0.16279069767441862
aF0.8372093023255814
aa(lp704
F0.33004926108374383
aF0.6699507389162561
aa(lp705
F0.17142857142857143
aF0.8285714285714286
aa(lp706
F0.4166666666666667
aF0.5833333333333334
aa(lp707
F0.2289156626506024
aF0.7710843373493976
aa(lp708
F0.2911392405063291
aF0.7088607594936709
aa(lp709
F0.08333333333333333
aF0.9166666666666666
aa(lp710
F0.0707070707070707
aF0.9292929292929293
aa(lp711
F0.2692307692307692
aF0.7307692307692307
aa(lp712
F0.2916666666666667
aF0.7083333333333334
aa(lp713
F0.37815126050420167
aF0.6218487394957983
aa(lp714
F0.20833333333333334
aF0.7916666666666666
aa(lp715
F0.2894736842105263
aF0.7105263157894737
aa(lp716
F0.11894273127753303
aF0.8810572687224669
aa(lp717
F0.24324324324324326
aF0.7567567567567568
aa(lp718
F0.2153846153846154
aF0.7846153846153846
aa(lp719
F0.26900584795321636
aF0.7309941520467836
aa(lp720
F0.11904761904761904
aF0.8809523809523809
aa(lp721
F0.4146341463414634
aF0.5853658536585366
aa(lp722
F0.3815789473684211
aF0.618421052631579
aa(lp723
F0.03819918144611187
aF0.9618008185538881
aa(lp724
F0.21621621621621623
aF0.7837837837837838
aa(lp725
F0.2631578947368421
aF0.7368421052631579
aa(lp726
F0.14102564102564102
aF0.8589743589743589
aa(lp727
F0.07407407407407407
aF0.9259259259259259
aa(lp728
F0.14835164835164835
aF0.8516483516483516
aa(lp729
F0.25675675675675674
aF0.7432432432432432
aa(lp730
F0.35148514851485146
aF0.6485148514851485
aa(lp731
F0.5802469135802469
aF0.41975308641975306
aa(lp732
F0.12418300653594772
aF0.8758169934640523
aa(lp733
F0.7619047619047619
aF0.23809523809523808
aa(lp734
F0.2903225806451613
aF0.7096774193548387
aa(lp735
F0.25190839694656486
aF0.7480916030534351
aa(lp736
F0.29896907216494845
aF0.7010309278350515
aa(lp737
F0.005042016806722689
aF0.9949579831932773
aa(lp738
F0.21983914209115282
aF0.7801608579088471
aa(lp739
F0.29310344827586204
aF0.7068965517241379
aa(lp740
F0.2761904761904762
aF0.7238095238095238
aa(lp741
F0.36
aF0.64
aa(lp742
F0.2028985507246377
aF0.7971014492753623
aa(lp743
F0.18461538461538463
aF0.8153846153846154
aa(lp744
F0.55
aF0.45
aa(lp745
F0.29328621908127206
aF0.7067137809187279
aa(lp746
F0.38235294117647056
aF0.6176470588235294
aa(lp747
F0.31797235023041476
aF0.6820276497695853
aa(lp748
F0.1746031746031746
aF0.8253968253968254
aa(lp749
F0.28735632183908044
aF0.7126436781609196
aa(lp750
F0.21818181818181817
aF0.7818181818181819
aa(lp751
F0.21621621621621623
aF0.7837837837837838
aa(lp752
F0.30973451327433627
aF0.6902654867256637
aa(lp753
F0.45098039215686275
aF0.5490196078431373
aa(lp754
F0.18571428571428572
aF0.8142857142857143
aa(lp755
F0.2248995983935743
aF0.7751004016064257
aa(lp756
F0.46938775510204084
aF0.5306122448979592
aa(lp757
F0.30357142857142855
aF0.6964285714285714
aa(lp758
F0.3770491803278688
aF0.6229508196721312
aa(lp759
F0.25882352941176473
aF0.7411764705882353
aa(lp760
F0.27419354838709675
aF0.7258064516129032
aa(lp761
F0.4117647058823529
aF0.5882352941176471
aa(lp762
F0.15671641791044777
aF0.8432835820895522
aa(lp763
F0.12037037037037036
aF0.8796296296296297
aa(lp764
F0.32075471698113206
aF0.6792452830188679
aa(lp765
F0.19791666666666666
aF0.8020833333333334
aa(lp766
F0.42105263157894735
aF0.5789473684210527
aa(lp767
F0.31666666666666665
aF0.6833333333333333
aa(lp768
F0.2814814814814815
aF0.7185185185185186
aa(lp769
F0.41414141414141414
aF0.5858585858585859
aa(lp770
F0.05555555555555555
aF0.9444444444444444
aa(lp771
F0.25196850393700787
aF0.7480314960629921
aa(lp772
F0.2619047619047619
aF0.7380952380952381
aa(lp773
F0.23383084577114427
aF0.7661691542288557
aa(lp774
F0.328
aF0.672
aa(lp775
F0.0
aF1.0
aa(lp776
F0.4827586206896552
aF0.5172413793103449
aa(lp777
F0.14705882352941177
aF0.8529411764705882
aa(lp778
F0.4105263157894737
aF0.5894736842105263
aa(lp779
F0.21153846153846154
aF0.7884615384615384
aa(lp780
F0.0640713706407137
aF0.9359286293592863
aa(lp781
F0.3333333333333333
aF0.6666666666666666
aa(lp782
F0.2641509433962264
aF0.7358490566037735
aa(lp783
F0.09302325581395349
aF0.9069767441860465
aa(lp784
F0.1794871794871795
aF0.8205128205128205
aa(lp785
F0.11475409836065574
aF0.8852459016393442
aa(lp786
F0.32038834951456313
aF0.6796116504854369
aa(lp787
F0.20202020202020202
aF0.797979797979798
aa(lp788
F0.44329896907216493
aF0.5567010309278351
aa(lp789
F0.36065573770491804
aF0.639344262295082
aa(lp790
F0.012116892373485389
aF0.9878831076265147
aa(lp791
F0.23976608187134502
aF0.7602339181286549
aa(lp792
F0.3285198555956679
aF0.6714801444043321
aa(lp793
F0.40217391304347827
aF0.5978260869565217
aa(lp794
F0.001215066828675577
aF0.9987849331713244
aa(lp795
F0.28125
aF0.71875
aa(lp796
F0.18518518518518517
aF0.8148148148148148
aa(lp797
F0.17315175097276264
aF0.8268482490272373
aa(lp798
F0.21875
aF0.78125
aa(lp799
F0.24647887323943662
aF0.7535211267605634
aa(lp800
F0.18604651162790697
aF0.813953488372093
aa(lp801
F0.1889763779527559
aF0.8110236220472441
aa(lp802
F0.3068181818181818
aF0.6931818181818182
aa(lp803
F0.2222222222222222
aF0.7777777777777778
aa(lp804
F0.4015748031496063
aF0.5984251968503937
aa(lp805
F0.2631578947368421
aF0.7368421052631579
aa(lp806
F0.18461538461538463
aF0.8153846153846154
aa(lp807
F0.31092436974789917
aF0.6890756302521008
aa(lp808
F0.2833333333333333
aF0.7166666666666667
aa(lp809
F0.26627218934911245
aF0.7337278106508875
aa(lp810
F0.03773584905660377
aF0.9622641509433962
aa(lp811
F0.13712415130940833
aF0.8628758486905916
aa(lp812
F0.2376237623762376
aF0.7623762376237624
aa(lp813
F0.0037907505686125853
aF0.9962092494313874
aa(lp814
F0.21818181818181817
aF0.7818181818181819
aa(lp815
F0.2949640287769784
aF0.7050359712230215
aa(lp816
F0.2537313432835821
aF0.746268656716418
aa(lp817
F0.47619047619047616
aF0.5238095238095238
aa(lp818
F0.3163265306122449
aF0.6836734693877551
aa(lp819
F0.4528301886792453
aF0.5471698113207547
aa(lp820
F0.39473684210526316
aF0.6052631578947368
aa(lp821
F0.2727272727272727
aF0.7272727272727273
aa(lp822
F0.13157894736842105
aF0.868421052631579
aa(lp823
F0.1282051282051282
aF0.8717948717948718
aa(lp824
F0.10461285008237232
aF0.8953871499176277
aa(lp825
F0.43243243243243246
aF0.5675675675675675
aa(lp826
F0.2127659574468085
aF0.7872340425531915
aa(lp827
F0.3076923076923077
aF0.6923076923076923
aa(lp828
F0.2028985507246377
aF0.7971014492753623
aa(lp829
F0.2621951219512195
aF0.7378048780487805
aa(lp830
F0.17391304347826086
aF0.8260869565217391
aa(lp831
F0.35294117647058826
aF0.6470588235294118
aa(lp832
F0.31343283582089554
aF0.6865671641791045
aa(lp833
F0.3142857142857143
aF0.6857142857142857
aa(lp834
F0.2545454545454545
aF0.7454545454545455
aa(lp835
F0.2222222222222222
aF0.7777777777777778
aa(lp836
F0.0010223455527968454
aF0.9989776544472031
aa(lp837
F0.38235294117647056
aF0.6176470588235294
aa(lp838
F0.27586206896551724
aF0.7241379310344828
aa(lp839
F0.16875
aF0.83125
aa(lp840
F0.3779527559055118
aF0.6220472440944882
aa(lp841
F0.45
aF0.55
aa(lp842
F0.31203931203931207
aF0.687960687960688
aa(lp843
F0.329153605015674
aF0.670846394984326
aa(lp844
F0.20107238605898123
aF0.7989276139410187
aa(lp845
F0.1511627906976744
aF0.8488372093023255
aa(lp846
F0.4807692307692308
aF0.5192307692307693
aa(lp847
F0.2647058823529412
aF0.7352941176470589
aa(lp848
F0.22916666666666666
aF0.7708333333333334
aa(lp849
F0.4222222222222222
aF0.5777777777777777
aa(lp850
F0.2153846153846154
aF0.7846153846153846
aa(lp851
F0.3595505617977528
aF0.6404494382022472
aa(lp852
F0.23696682464454977
aF0.7630331753554502
aa(lp853
F0.5128205128205128
aF0.48717948717948717
aa(lp854
F0.21689497716894976
aF0.7831050228310502
aa(lp855
F0.2815533980582524
aF0.7184466019417476
aa(lp856
F0.23076923076923078
aF0.7692307692307693
aa(lp857
F0.23952095808383234
aF0.7604790419161677
aa(lp858
F0.20454545454545456
aF0.7954545454545454
aa(lp859
F0.2727272727272727
aF0.7272727272727273
aa(lp860
F0.29936305732484075
aF0.7006369426751592
aa(lp861
F0.15789473684210525
aF0.8421052631578947
aa(lp862
F0.15217391304347827
aF0.8478260869565217
aa(lp863
F0.2677165354330709
aF0.7322834645669292
aa(lp864
F0.22772277227722773
aF0.7722772277227723
aa(lp865
F0.26865671641791045
aF0.7313432835820896
aa(lp866
F0.17857142857142858
aF0.8214285714285714
aa(lp867
F0.3698630136986301
aF0.6301369863013698
aa(lp868
F0.19205298013245034
aF0.8079470198675497
aa(lp869
F0.16666666666666666
aF0.8333333333333334
aa(lp870
F0.16422947131608548
aF0.8357705286839145
aa(lp871
F0.19047619047619047
aF0.8095238095238095
aa(lp872
F0.21359223300970873
aF0.7864077669902912
aa(lp873
F0.21978021978021978
aF0.7802197802197802
aa(lp874
F0.3854166666666667
aF0.6145833333333334
aa(lp875
F0.23853211009174313
aF0.7614678899082569
aa(lp876
F0.3480392156862745
aF0.6519607843137255
aa(lp877
F0.20175438596491227
aF0.7982456140350878
aa(lp878
F0.2767857142857143
aF0.7232142857142857
aa(lp879
F0.13095238095238096
aF0.8690476190476191
aa(lp880
F0.21176470588235294
aF0.788235294117647
aa(lp881
F0.1937984496124031
aF0.8062015503875969
aa(lp882
F0.14285714285714285
aF0.8571428571428571
aa(lp883
F0.0967741935483871
aF0.9032258064516129
aa(lp884
F0.2857142857142857
aF0.7142857142857143
aa(lp885
F0.21951219512195122
aF0.7804878048780488
aa(lp886
F0.3793103448275862
aF0.6206896551724138
aa(lp887
F0.4726027397260274
aF0.5273972602739726
aa(lp888
F0.2
aF0.8
aa(lp889
F0.43137254901960786
aF0.5686274509803921
aa(lp890
F0.24561403508771928
aF0.7543859649122807
aa(lp891
F0.4342857142857143
aF0.5657142857142857
aa(lp892
F0.2631578947368421
aF0.7368421052631579
aa(lp893
F0.05143721633888049
aF0.9485627836611196
aa(lp894
F0.19883040935672514
aF0.8011695906432749
aa(lp895
F0.07272727272727272
aF0.9272727272727272
aa(lp896
F0.26842105263157895
aF0.7315789473684211
aa(lp897
F0.3462897526501767
aF0.6537102473498233
aa(lp898
F0.2905982905982906
aF0.7094017094017094
aa(lp899
F0.12871287128712872
aF0.8712871287128713
aa(lp900
F0.20388349514563106
aF0.7961165048543689
aa(lp901
F0.0076045627376425855
aF0.9923954372623575
aa(lp902
F0.14054054054054055
aF0.8594594594594595
aa(lp903
F0.06976744186046512
aF0.9302325581395349
aa(lp904
F0.7073170731707317
aF0.2926829268292683
aa(lp905
F0.375
aF0.625
aa(lp906
F0.3333333333333333
aF0.6666666666666666
aa(lp907
F0.2631578947368421
aF0.7368421052631579
aa(lp908
F0.2702702702702703
aF0.7297297297297297
aa(lp909
F0.34545454545454546
aF0.6545454545454545
aa(lp910
F0.24880382775119617
aF0.7511961722488039
aa(lp911
F0.24175824175824176
aF0.7582417582417582
aa(lp912
F0.3082706766917293
aF0.6917293233082706
aa(lp913
F0.21739130434782608
aF0.782608695652174
aa(lp914
F0.4489795918367347
aF0.5510204081632653
aa(lp915
F0.36363636363636365
aF0.6363636363636364
aa(lp916
F0.24731182795698925
aF0.7526881720430108
aa(lp917
F0.23325892857142858
aF0.7667410714285714
aa(lp918
F0.631578947368421
aF0.3684210526315789
aa(lp919
F0.27358490566037735
aF0.7264150943396226
aa(lp920
F0.2413793103448276
aF0.7586206896551724
aa(lp921
F0.34831460674157305
aF0.651685393258427
aa(lp922
F0.17937219730941703
aF0.820627802690583
aa(lp923
F0.02491103202846975
aF0.9750889679715302
aa(lp924
F0.2857142857142857
aF0.7142857142857143
aa(lp925
F0.2949640287769784
aF0.7050359712230215
aa(lp926
F0.3181818181818182
aF0.6818181818181818
aa(lp927
F0.2839506172839506
aF0.7160493827160493
aa(lp928
F0.23255813953488372
aF0.7674418604651163
aa(lp929
F0.057692307692307696
aF0.9423076923076923
aa(lp930
F0.21518987341772153
aF0.7848101265822784
aa(lp931
F0.21359223300970873
aF0.7864077669902912
aa(lp932
F0.3007518796992481
aF0.6992481203007519
aa(lp933
F0.3333333333333333
aF0.6666666666666666
aa(lp934
F0.27472527472527475
aF0.7252747252747253
aa(lp935
F0.18421052631578946
aF0.8157894736842105
aa(lp936
F0.20689655172413793
aF0.7931034482758621
aa(lp937
F0.3333333333333333
aF0.6666666666666666
aa(lp938
F0.47115384615384615
aF0.5288461538461539
aa(lp939
F0.061068702290076333
aF0.9389312977099237
aa(lp940
F0.1643835616438356
aF0.8356164383561644
aa(lp941
F0.16964285714285715
aF0.8303571428571429
aa(lp942
F0.27586206896551724
aF0.7241379310344828
aa(lp943
F0.25833333333333336
aF0.7416666666666667
aa(lp944
F0.0
aF1.0
aa(lp945
F0.3482142857142857
aF0.6517857142857143
aa(lp946
F0.07103825136612021
aF0.9289617486338798
aa(lp947
F0.24
aF0.76
aa(lp948
F0.19718309859154928
aF0.8028169014084507
aa(lp949
F0.21794871794871795
aF0.782051282051282
aa(lp950
F0.18604651162790697
aF0.813953488372093
aa(lp951
F0.39634146341463417
aF0.6036585365853658
aa(lp952
F0.33707865168539325
aF0.6629213483146067
aa(lp953
F0.12698412698412698
aF0.873015873015873
aa(lp954
F0.19642857142857142
aF0.8035714285714286
aa(lp955
F0.16521739130434782
aF0.8347826086956521
aa(lp956
F0.18587360594795538
aF0.8141263940520446
aa(lp957
F0.11267605633802817
aF0.8873239436619719
aa(lp958
F0.205607476635514
aF0.794392523364486
aa(lp959
F0.3050847457627119
aF0.6949152542372882
aa(lp960
F0.3068181818181818
aF0.6931818181818182
aa(lp961
F0.2682926829268293
aF0.7317073170731707
aa(lp962
F0.2636363636363636
aF0.7363636363636363
aa(lp963
F0.25523012552301255
aF0.7447698744769874
aa(lp964
F0.23880597014925373
aF0.7611940298507462
aa(lp965
F0.19230769230769232
aF0.8076923076923077
aa(lp966
F0.14615384615384616
aF0.8538461538461538
aa(lp967
F0.3148558758314856
aF0.6851441241685144
aa(lp968
F0.18609022556390978
aF0.8139097744360902
aa(lp969
F0.15436241610738255
aF0.8456375838926175
aa(lp970
F0.008287292817679558
aF0.9917127071823204
aa(lp971
F0.08235294117647059
aF0.9176470588235294
aa(lp972
F0.26506024096385544
aF0.7349397590361446
aa(lp973
F0.3843137254901961
aF0.615686274509804
aa(lp974
F0.14501510574018128
aF0.8549848942598187
aa(lp975
F0.4377358490566038
aF0.5622641509433962
aa(lp976
F0.21052631578947367
aF0.7894736842105263
aa(lp977
F0.24193548387096775
aF0.7580645161290323
aa(lp978
F0.2708333333333333
aF0.7291666666666666
aa(lp979
F0.18518518518518517
aF0.8148148148148148
aa(lp980
F0.17766497461928935
aF0.8223350253807107
aa(lp981
F0.2361111111111111
aF0.7638888888888888
aa(lp982
F0.35036496350364965
aF0.6496350364963503
aa(lp983
F0.2222222222222222
aF0.7777777777777778
aa(lp984
F0.10655737704918032
aF0.8934426229508197
aa(lp985
F0.12371134020618557
aF0.8762886597938144
aa(lp986
F0.44761904761904764
aF0.5523809523809524
aa(lp987
F0.2392638036809816
aF0.7607361963190185
aa(lp988
F0.2
aF0.8
aa(lp989
F0.13950538998097653
aF0.8604946100190235
aa(lp990
F0.2248062015503876
aF0.7751937984496124
aa(lp991
F0.11151079136690648
aF0.8884892086330936
aa(lp992
F0.35
aF0.65
aa(lp993
F0.2782608695652174
aF0.7217391304347827
aa(lp994
F0.3076923076923077
aF0.6923076923076923
aa(lp995
F0.31666666666666665
aF0.6833333333333333
aa(lp996
F0.43870967741935485
aF0.5612903225806452
aa(lp997
F0.32786885245901637
aF0.6721311475409836
aa(lp998
F0.27530364372469635
aF0.7246963562753036
aa(lp999
F0.18681318681318682
aF0.8131868131868132
aa(lp1000
F0.4525
aF0.5475
aa(lp1001
F0.15217391304347827
aF0.8478260869565217
aa(lp1002
F0.05120481927710843
aF0.9487951807228916
aa(lp1003
F0.3262411347517731
aF0.6737588652482269
aa(lp1004
F0.2719298245614035
aF0.7280701754385965
aa(lp1005
F0.21739130434782608
aF0.782608695652174
aa(lp1006
F0.34965034965034963
aF0.6503496503496503
aa(lp1007
F0.3559322033898305
aF0.6440677966101694
aa(lp1008
F0.4605263157894737
aF0.5394736842105263
aa(lp1009
F0.17777777777777778
aF0.8222222222222222
aa(lp1010
F0.12376237623762376
aF0.8762376237623762
aa(lp1011
F0.22282608695652173
aF0.7771739130434783
aa(lp1012
F0.4495798319327731
aF0.5504201680672269
aa(lp1013
F0.25517241379310346
aF0.7448275862068966
aa(lp1014
F0.2151394422310757
aF0.7848605577689243
aa(lp1015
F0.2604166666666667
aF0.7395833333333334
aa(lp1016
F0.329608938547486
aF0.6703910614525139
aa(lp1017
F0.2
aF0.8
aa(lp1018
F0.25157232704402516
aF0.7484276729559748
aa(lp1019
F0.38636363636363635
aF0.6136363636363636
aa(lp1020
F0.225
aF0.775
aa(lp1021
F0.43902439024390244
aF0.5609756097560976
aa(lp1022
F0.08253968253968254
aF0.9174603174603174
aa(lp1023
F0.16037735849056603
aF0.839622641509434
aa(lp1024
F0.1917808219178082
aF0.8082191780821918
aa(lp1025
F0.18518518518518517
aF0.8148148148148148
aa(lp1026
F0.2206896551724138
aF0.7793103448275862
aa(lp1027
F0.38
aF0.62
aa(lp1028
F0.27167630057803466
aF0.7283236994219653
aa(lp1029
F0.0
aF1.0
aa(lp1030
F0.17094017094017094
aF0.8290598290598291
aa(lp1031
F0.26956521739130435
aF0.7304347826086957
aa(lp1032
F0.24358974358974358
aF0.7564102564102564
aa(lp1033
F0.31683168316831684
aF0.6831683168316832
aa(lp1034
F0.15527950310559005
aF0.84472049689441
aa(lp1035
F0.3333333333333333
aF0.6666666666666666
aa(lp1036
F0.38181818181818183
aF0.6181818181818182
aa(lp1037
F0.19047619047619047
aF0.8095238095238095
aa(lp1038
F0.1390728476821192
aF0.8609271523178808
aa(lp1039
F0.28823529411764703
aF0.711764705882353
aa(lp1040
F0.22321428571428573
aF0.7767857142857143
aa(lp1041
F0.4160839160839161
aF0.583916083916084
aa(lp1042
F0.1506849315068493
aF0.8493150684931506
aa(lp1043
F0.3013698630136986
aF0.6986301369863014
aa(lp1044
F0.125
aF0.875
aa(lp1045
F0.3194444444444444
aF0.6805555555555556
aa(lp1046
F0.2638888888888889
aF0.7361111111111112
aa(lp1047
F0.19672131147540983
aF0.8032786885245902
aa(lp1048
F0.1267605633802817
aF0.8732394366197183
aa(lp1049
F0.29411764705882354
aF0.7058823529411765
aa(lp1050
F0.20408163265306123
aF0.7959183673469388
aa(lp1051
F0.2631578947368421
aF0.7368421052631579
aa(lp1052
F0.1776061776061776
aF0.8223938223938224
aa(lp1053
F0.2692307692307692
aF0.7307692307692307
aa(lp1054
F0.14285714285714285
aF0.8571428571428571
aa(lp1055
F0.12350597609561753
aF0.8764940239043825
aa(lp1056
F0.29292929292929293
aF0.7070707070707071
aa(lp1057
F0.10810810810810811
aF0.8918918918918919
aa(lp1058
F0.17391304347826086
aF0.8260869565217391
aa(lp1059
F0.2376237623762376
aF0.7623762376237624
aa(lp1060
F0.12781954887218044
aF0.8721804511278195
aa(lp1061
F0.2564102564102564
aF0.7435897435897436
aa(lp1062
F0.24087591240875914
aF0.7591240875912408
aa(lp1063
F0.18292682926829268
aF0.8170731707317073
aa(lp1064
F0.2028985507246377
aF0.7971014492753623
aa(lp1065
F0.3157894736842105
aF0.6842105263157895
aa(lp1066
F0.3333333333333333
aF0.6666666666666666
aa(lp1067
F0.5
aF0.5
aa(lp1068
F0.2191780821917808
aF0.7808219178082192
aa(lp1069
F0.17065868263473055
aF0.8293413173652695
aa(lp1070
F0.33653846153846156
aF0.6634615384615384
aa(lp1071
F0.12345679012345678
aF0.8765432098765432
aa(lp1072
F0.15905511811023623
aF0.8409448818897638
aa(lp1073
F0.10052910052910052
aF0.8994708994708994
aa(lp1074
F0.22448979591836735
aF0.7755102040816326
aa(lp1075
F0.18181818181818182
aF0.8181818181818182
aa(lp1076
F0.19310344827586207
aF0.8068965517241379
aa(lp1077
F0.21348314606741572
aF0.7865168539325843
aa(lp1078
F0.3523809523809524
aF0.6476190476190476
aa(lp1079
F0.20441988950276244
aF0.7955801104972375
aa(lp1080
F0.36666666666666664
aF0.6333333333333333
aa(lp1081
F0.20652173913043478
aF0.7934782608695652
aa(lp1082
F0.22641509433962265
aF0.7735849056603774
aa(lp1083
F0.020833333333333332
aF0.9791666666666666
aa(lp1084
F0.00596252129471891
aF0.9940374787052811
aa(lp1085
F0.18181818181818182
aF0.8181818181818182
aa(lp1086
F0.2841726618705036
aF0.7158273381294964
aa(lp1087
F0.005055611729019211
aF0.9949443882709808
aa(lp1088
F0.31343283582089554
aF0.6865671641791045
aa(lp1089
F0.319672131147541
aF0.680327868852459
aa(lp1090
F0.2894736842105263
aF0.7105263157894737
aa(lp1091
F0.0022624434389140274
aF0.997737556561086
aa(lp1092
F0.04897314375987362
aF0.9510268562401264
aa(lp1093
F0.17708333333333334
aF0.8229166666666666
aa(lp1094
F0.12618296529968454
aF0.8738170347003155
aa(lp1095
F0.39325842696629215
aF0.6067415730337079
aa(lp1096
F0.10185185185185185
aF0.8981481481481481
aa(lp1097
F0.024291497975708502
aF0.9757085020242915
aa(lp1098
F0.30916030534351147
aF0.6908396946564885
aa(lp1099
F0.23469387755102042
aF0.7653061224489796
aa(lp1100
F0.2413793103448276
aF0.7586206896551724
aa(lp1101
F0.0958904109589041
aF0.9041095890410958
aa(lp1102
F0.3008849557522124
aF0.6991150442477876
aa(lp1103
F0.41379310344827586
aF0.5862068965517241
aa(lp1104
F0.13191489361702127
aF0.8680851063829788
aa(lp1105
F0.25555555555555554
aF0.7444444444444445
aa(lp1106
F0.43037974683544306
aF0.569620253164557
aa(lp1107
F0.35782747603833864
aF0.6421725239616614
aa(lp1108
F0.1891891891891892
aF0.8108108108108109
aa(lp1109
F0.2624113475177305
aF0.7375886524822695
aa(lp1110
F0.3787878787878788
aF0.6212121212121212
aa(lp1111
F0.3783783783783784
aF0.6216216216216216
aa(lp1112
F0.12380952380952381
aF0.8761904761904762
aa(lp1113
F0.40625
aF0.59375
aa(lp1114
F0.2857142857142857
aF0.7142857142857143
aa(lp1115
F0.35251798561151076
aF0.6474820143884892
aa(lp1116
F0.23404255319148937
aF0.7659574468085106
aa(lp1117
F0.31343283582089554
aF0.6865671641791045
aa(lp1118
F0.32432432432432434
aF0.6756756756756757
aa(lp1119
F0.23076923076923078
aF0.7692307692307693
aa(lp1120
F0.4105263157894737
aF0.5894736842105263
aa(lp1121
F0.32142857142857145
aF0.6785714285714286
aa(lp1122
F0.43386243386243384
aF0.5661375661375662
aa(lp1123
F0.34579439252336447
aF0.6542056074766355
aa(lp1124
F0.1326530612244898
aF0.8673469387755102
aa(lp1125
F0.22142857142857142
aF0.7785714285714286
aa(lp1126
F0.25316455696202533
aF0.7468354430379747
aa(lp1127
F0.23376623376623376
aF0.7662337662337663
aa(lp1128
F0.3738738738738739
aF0.6261261261261262
aa(lp1129
F0.5813953488372093
aF0.4186046511627907
aa(lp1130
F0.2727272727272727
aF0.7272727272727273
aa(lp1131
F0.29022988505747127
aF0.7097701149425287
aa(lp1132
F0.1686746987951807
aF0.8313253012048193
aa(lp1133
F0.16793893129770993
aF0.8320610687022901
aa(lp1134
F0.09411764705882353
aF0.9058823529411765
aa(lp1135
F0.22413793103448276
aF0.7758620689655172
aa(lp1136
F0.29743589743589743
aF0.7025641025641025
aa(lp1137
F0.535483870967742
aF0.4645161290322581
aa(lp1138
F0.29015544041450775
aF0.7098445595854922
aa(lp1139
F0.20588235294117646
aF0.7941176470588235
aa(lp1140
F0.3068181818181818
aF0.6931818181818182
aa(lp1141
F0.19306930693069307
aF0.806930693069307
aa(lp1142
F0.13230769230769232
aF0.8676923076923077
aa(lp1143
F0.5141955835962145
aF0.48580441640378547
aa(lp1144
F0.010084033613445379
aF0.9899159663865547
aa(lp1145
F0.3707865168539326
aF0.6292134831460674
aa(lp1146
F0.1875
aF0.8125
aa(lp1147
F0.13793103448275862
aF0.8620689655172413
aa(lp1148
F0.3103448275862069
aF0.6896551724137931
aa(lp1149
F0.3373493975903614
aF0.6626506024096386
aa(lp1150
F0.22535211267605634
aF0.7746478873239436
aa(lp1151
F0.22857142857142856
aF0.7714285714285715
aa(lp1152
F0.25089605734767023
aF0.7491039426523297
aa(lp1153
F0.2765957446808511
aF0.723404255319149
aa(lp1154
F0.20105820105820105
aF0.798941798941799
aa(lp1155
F0.23234624145785876
aF0.7676537585421412
aa(lp1156
F0.30434782608695654
aF0.6956521739130435
aa(lp1157
F0.05263157894736842
aF0.9473684210526315
aa(lp1158
F0.18666666666666668
aF0.8133333333333334
aa(lp1159
F0.25
aF0.75
aa(lp1160
F0.35
aF0.65
aa(lp1161
F0.029288702928870293
aF0.9707112970711297
aa(lp1162
F0.24193548387096775
aF0.7580645161290323
aa(lp1163
F0.25
aF0.75
aa(lp1164
F0.1875
aF0.8125
aa(lp1165
F0.12941176470588237
aF0.8705882352941177
aa(lp1166
F0.2619047619047619
aF0.7380952380952381
aa(lp1167
F0.30670926517571884
aF0.6932907348242812
aa(lp1168
F0.35294117647058826
aF0.6470588235294118
aa(lp1169
F0.472
aF0.528
aa(lp1170
F0.21875
aF0.78125
aa(lp1171
F0.22897196261682243
aF0.7710280373831776
aa(lp1172
F0.3211009174311927
aF0.6788990825688074
aa(lp1173
F0.13953488372093023
aF0.8604651162790697
aa(lp1174
F0.3
aF0.7
aa(lp1175
F0.2777777777777778
aF0.7222222222222222
aa(lp1176
F0.06043956043956044
aF0.9395604395604396
aa(lp1177
F0.2755102040816326
aF0.7244897959183674
aa(lp1178
F0.11627906976744186
aF0.8837209302325582
aa(lp1179
F0.3333333333333333
aF0.6666666666666666
aa(lp1180
F0.3333333333333333
aF0.6666666666666666
aa(lp1181
F0.3088235294117647
aF0.6911764705882353
aa(lp1182
F0.28888888888888886
aF0.7111111111111111
aa(lp1183
F0.18409090909090908
aF0.8159090909090909
aa(lp1184
F0.25
aF0.75
aa(lp1185
F0.44660194174757284
aF0.5533980582524272
aa(lp1186
F0.34375
aF0.65625
aa(lp1187
F0.23645320197044334
aF0.7635467980295566
aa(lp1188
F0.25052192066805845
aF0.7494780793319415
aa(lp1189
F0.11320754716981132
aF0.8867924528301887
aa(lp1190
F0.25
aF0.75
aa(lp1191
F0.2647058823529412
aF0.7352941176470589
aa(lp1192
F0.3142857142857143
aF0.6857142857142857
aa(lp1193
F0.14285714285714285
aF0.8571428571428571
aa(lp1194
F0.208955223880597
aF0.7910447761194029
aa(lp1195
F0.1346153846153846
aF0.8653846153846154
aa(lp1196
F0.30708661417322836
aF0.6929133858267716
aa(lp1197
F0.381294964028777
aF0.6187050359712231
aa(lp1198
F0.726027397260274
aF0.273972602739726
aa(lp1199
F0.5893719806763285
aF0.4106280193236715
aa(lp1200
F0.8325358851674641
aF0.1674641148325359
aa(lp1201
F0.9020618556701031
aF0.0979381443298969
aa(lp1202
F0.8315789473684211
aF0.16842105263157894
aa(lp1203
F0.48717948717948717
aF0.5128205128205128
aa(lp1204
F0.7142857142857143
aF0.2857142857142857
aa(lp1205
F0.7092198581560284
aF0.2907801418439716
aa(lp1206
F0.6413043478260869
aF0.358695652173913
aa(lp1207
F0.6842105263157895
aF0.3157894736842105
aa(lp1208
F0.8555555555555555
aF0.14444444444444443
aa(lp1209
F0.8111533586818758
aF0.1888466413181242
aa(lp1210
F0.45263157894736844
aF0.5473684210526316
aa(lp1211
F0.6666666666666666
aF0.3333333333333333
aa(lp1212
F0.5229357798165137
aF0.47706422018348627
aa(lp1213
F0.6491228070175439
aF0.3508771929824561
aa(lp1214
F0.7142857142857143
aF0.2857142857142857
aa(lp1215
F0.7891440501043842
aF0.21085594989561587
aa(lp1216
F0.5606060606060606
aF0.4393939393939394
aa(lp1217
F0.75
aF0.25
aa(lp1218
F0.509090909090909
aF0.4909090909090909
aa(lp1219
F0.5189873417721519
aF0.4810126582278481
aa(lp1220
F0.7743362831858407
aF0.22566371681415928
aa(lp1221
F0.5706214689265536
aF0.4293785310734463
aa(lp1222
F0.5578947368421052
aF0.4421052631578947
aa(lp1223
F0.6442307692307693
aF0.3557692307692308
aa(lp1224
F0.7244897959183674
aF0.2755102040816326
aa(lp1225
F0.6086956521739131
aF0.391304347826087
aa(lp1226
F0.7557251908396947
aF0.24427480916030533
aa(lp1227
F0.7391304347826086
aF0.2608695652173913
aa(lp1228
F0.6832579185520362
aF0.3167420814479638
aa(lp1229
F0.6111111111111112
aF0.3888888888888889
aa(lp1230
F0.6
aF0.4
aa(lp1231
F0.7157894736842105
aF0.28421052631578947
aa(lp1232
F0.7564102564102564
aF0.24358974358974358
aa(lp1233
F0.5276073619631901
aF0.4723926380368098
aa(lp1234
F0.5694444444444444
aF0.4305555555555556
aa(lp1235
F0.5289855072463768
aF0.47101449275362317
aa(lp1236
F0.5416666666666666
aF0.4583333333333333
aa(lp1237
F0.7
aF0.3
aa(lp1238
F0.6379310344827587
aF0.3620689655172414
aa(lp1239
F0.8023255813953488
aF0.19767441860465115
aa(lp1240
F0.8848167539267016
aF0.11518324607329843
aa(lp1241
F0.6176470588235294
aF0.38235294117647056
aa(lp1242
F0.48514851485148514
aF0.5148514851485149
aa(lp1243
F0.8205128205128205
aF0.1794871794871795
aa(lp1244
F0.8850574712643678
aF0.11494252873563218
aa(lp1245
F0.6703296703296703
aF0.32967032967032966
aa(lp1246
F0.6533333333333333
aF0.3466666666666667
aa(lp1247
F0.8774193548387097
aF0.12258064516129032
aa(lp1248
F0.678082191780822
aF0.3219178082191781
aa(lp1249
F0.8823529411764706
aF0.11764705882352941
aa(lp1250
F0.8676470588235294
aF0.1323529411764706
aa(lp1251
F0.3815789473684211
aF0.618421052631579
aa(lp1252
F0.45454545454545453
aF0.5454545454545454
aa(lp1253
F0.4918032786885246
aF0.5081967213114754
aa(lp1254
F0.5714285714285714
aF0.42857142857142855
aa(lp1255
F0.8106796116504854
aF0.18932038834951456
aa(lp1256
F0.5576923076923077
aF0.4423076923076923
aa(lp1257
F0.6134309083082221
aF0.3865690916917779
aa(lp1258
F0.4578313253012048
aF0.5421686746987951
aa(lp1259
F0.868421052631579
aF0.13157894736842105
aa(lp1260
F0.4777777777777778
aF0.5222222222222223
aa(lp1261
F0.41025641025641024
aF0.5897435897435898
aa(lp1262
F0.5833333333333334
aF0.4166666666666667
aa(lp1263
F0.5121951219512195
aF0.4878048780487805
aa(lp1264
F0.6981132075471698
aF0.3018867924528302
aa(lp1265
F0.632183908045977
aF0.367816091954023
aa(lp1266
F0.6933333333333334
aF0.30666666666666664
aa(lp1267
F0.9147727272727273
aF0.08522727272727272
aa(lp1268
F0.676923076923077
aF0.3230769230769231
aa(lp1269
F0.6846153846153846
aF0.3153846153846154
aa(lp1270
F0.8102189781021898
aF0.1897810218978102
aa(lp1271
F0.8997429305912596
aF0.10025706940874037
aa(lp1272
F0.5929203539823009
aF0.40707964601769914
aa(lp1273
F0.7419354838709677
aF0.25806451612903225
aa(lp1274
F0.5964912280701754
aF0.40350877192982454
aa(lp1275
F0.5844155844155844
aF0.4155844155844156
aa(lp1276
F0.5449101796407185
aF0.4550898203592814
aa(lp1277
F0.6923076923076923
aF0.3076923076923077
aa(lp1278
F0.4
aF0.6
aa(lp1279
F0.5443037974683544
aF0.45569620253164556
aa(lp1280
F0.7321428571428571
aF0.26785714285714285
aa(lp1281
F0.7992700729927007
aF0.20072992700729927
aa(lp1282
F0.5393258426966292
aF0.4606741573033708
aa(lp1283
F0.8097560975609757
aF0.1902439024390244
aa(lp1284
F0.8426395939086294
aF0.15736040609137056
aa(lp1285
F0.8333333333333334
aF0.16666666666666666
aa(lp1286
F0.6868686868686869
aF0.31313131313131315
aa(lp1287
F0.6206896551724138
aF0.3793103448275862
aa(lp1288
F0.7631578947368421
aF0.23684210526315788
aa(lp1289
F0.7291981845688351
aF0.2708018154311649
aa(lp1290
F0.5652173913043478
aF0.43478260869565216
aa(lp1291
F0.6888888888888889
aF0.3111111111111111
aa(lp1292
F0.759090909090909
aF0.2409090909090909
aa(lp1293
F0.3228346456692913
aF0.6771653543307087
aa(lp1294
F0.5930232558139535
aF0.4069767441860465
aa(lp1295
F0.7029702970297029
aF0.297029702970297
aa(lp1296
F0.5875
aF0.4125
aa(lp1297
F0.64
aF0.36
aa(lp1298
F0.7435897435897436
aF0.2564102564102564
aa(lp1299
F0.8546511627906976
aF0.14534883720930233
aa(lp1300
F0.8054054054054054
aF0.1945945945945946
aa(lp1301
F0.5428571428571428
aF0.45714285714285713
aa(lp1302
F0.6041666666666666
aF0.3958333333333333
aa(lp1303
F0.4049079754601227
aF0.5950920245398773
aa(lp1304
F0.8333333333333334
aF0.16666666666666666
aa(lp1305
F0.7482352941176471
aF0.25176470588235295
aa(lp1306
F0.5952380952380952
aF0.40476190476190477
aa(lp1307
F0.8449612403100775
aF0.15503875968992248
aa(lp1308
F0.7560975609756098
aF0.24390243902439024
aa(lp1309
F0.75
aF0.25
aa(lp1310
F0.7310924369747899
aF0.2689075630252101
aa(lp1311
F0.6292134831460674
aF0.3707865168539326
aa(lp1312
F0.453125
aF0.546875
aa(lp1313
F0.5285714285714286
aF0.4714285714285714
aa(lp1314
F0.6043956043956044
aF0.3956043956043956
aa(lp1315
F0.8732394366197183
aF0.1267605633802817
aa(lp1316
F0.6451612903225806
aF0.3548387096774194
aa(lp1317
F0.5925925925925926
aF0.4074074074074074
aa(lp1318
F0.6621621621621622
aF0.33783783783783783
aa(lp1319
F0.6371951219512195
aF0.3628048780487805
aa(lp1320
F0.390625
aF0.609375
aa(lp1321
F0.7129629629629629
aF0.28703703703703703
aa(lp1322
F0.8487394957983193
aF0.15126050420168066
aa(lp1323
F0.34328358208955223
aF0.6567164179104478
aa(lp1324
F0.7769230769230769
aF0.2230769230769231
aa(lp1325
F0.7808219178082192
aF0.2191780821917808
aa(lp1326
F0.2222222222222222
aF0.7777777777777778
aa(lp1327
F0.6265060240963856
aF0.37349397590361444
aa(lp1328
F0.7815126050420168
aF0.2184873949579832
aa(lp1329
F0.7049180327868853
aF0.29508196721311475
aa(lp1330
F0.7333333333333333
aF0.26666666666666666
aa(lp1331
F0.7864077669902912
aF0.21359223300970873
aa(lp1332
F0.5390625
aF0.4609375
aa(lp1333
F0.5192307692307693
aF0.4807692307692308
aa(lp1334
F0.44680851063829785
aF0.5531914893617021
aa(lp1335
F0.5575221238938053
aF0.4424778761061947
aa(lp1336
F0.7421052631578947
aF0.2578947368421053
aa(lp1337
F0.7333333333333333
aF0.26666666666666666
aa(lp1338
F0.4117647058823529
aF0.5882352941176471
aa(lp1339
F0.7814207650273224
aF0.2185792349726776
aa(lp1340
F0.7245508982035929
aF0.2754491017964072
aa(lp1341
F0.7888888888888889
aF0.2111111111111111
aa(lp1342
F0.7924528301886793
aF0.20754716981132076
aa(lp1343
F0.7523809523809524
aF0.24761904761904763
aa(lp1344
F0.6987179487179487
aF0.30128205128205127
aa(lp1345
F0.5853658536585366
aF0.4146341463414634
aa(lp1346
F0.5964912280701754
aF0.40350877192982454
aa(lp1347
F0.8476190476190476
aF0.1523809523809524
aa(lp1348
F0.7760736196319018
aF0.22392638036809817
aa(lp1349
F0.6
aF0.4
aa(lp1350
F0.6530612244897959
aF0.3469387755102041
aa(lp1351
F0.8382687927107062
aF0.16173120728929385
aa(lp1352
F0.5612244897959183
aF0.4387755102040816
aa(lp1353
F0.8380281690140845
aF0.1619718309859155
aa(lp1354
F0.6813186813186813
aF0.31868131868131866
aa(lp1355
F0.717948717948718
aF0.28205128205128205
aa(lp1356
F0.5247524752475248
aF0.4752475247524752
aa(lp1357
F0.547945205479452
aF0.4520547945205479
aa(lp1358
F0.7692592592592593
aF0.23074074074074075
aa(lp1359
F0.5909090909090909
aF0.4090909090909091
aa(lp1360
F0.5263157894736842
aF0.47368421052631576
aa(lp1361
F0.5742024965325936
aF0.42579750346740636
aa(lp1362
F0.7657657657657657
aF0.23423423423423423
aa(lp1363
F0.6119402985074627
aF0.3880597014925373
aa(lp1364
F0.7311827956989247
aF0.26881720430107525
aa(lp1365
F0.6853932584269663
aF0.3146067415730337
aa(lp1366
F0.846820809248555
aF0.1531791907514451
aa(lp1367
F0.5
aF0.5
aa(lp1368
F0.6888888888888889
aF0.3111111111111111
aa(lp1369
F0.6119402985074627
aF0.3880597014925373
aa(lp1370
F0.7704918032786885
aF0.22950819672131148
aa(lp1371
F0.48863636363636365
aF0.5113636363636364
aa(lp1372
F0.3037974683544304
aF0.6962025316455697
aa(lp1373
F0.8348623853211009
aF0.1651376146788991
aa(lp1374
F0.6548672566371682
aF0.34513274336283184
aa(lp1375
F0.625
aF0.375
aa(lp1376
F0.6555555555555556
aF0.34444444444444444
aa(lp1377
F0.46303501945525294
aF0.5369649805447471
aa(lp1378
F0.7555555555555555
aF0.24444444444444444
aa(lp1379
F0.4166666666666667
aF0.5833333333333334
aa(lp1380
F0.7863247863247863
aF0.21367521367521367
aa(lp1381
F0.46511627906976744
aF0.5348837209302325
aa(lp1382
F0.7607361963190185
aF0.2392638036809816
aa(lp1383
F0.8454172366621067
aF0.1545827633378933
aa(lp1384
F0.6576576576576577
aF0.34234234234234234
aa(lp1385
F0.8
aF0.2
aa(lp1386
F0.4307692307692308
aF0.5692307692307692
aa(lp1387
F0.5070422535211268
aF0.49295774647887325
aa(lp1388
F0.3333333333333333
aF0.6666666666666666
aa(lp1389
F0.5909090909090909
aF0.4090909090909091
aa(lp1390
F0.825503355704698
aF0.174496644295302
aa(lp1391
F0.761996161228407
aF0.2380038387715931
aa(lp1392
F0.6493506493506493
aF0.35064935064935066
aa(lp1393
F0.6853146853146853
aF0.3146853146853147
aa(lp1394
F0.7029702970297029
aF0.297029702970297
aa(lp1395
F0.7297297297297297
aF0.2702702702702703
aa(lp1396
F0.543859649122807
aF0.45614035087719296
aa(lp1397
F0.32246039142590865
aF0.6775396085740913
aa(lp1398
F0.7125
aF0.2875
aa(lp1399
F0.7101449275362319
aF0.2898550724637681
aa(lp1400
F0.7395104895104895
aF0.26048951048951047
aa(lp1401
F0.75
aF0.25
aa(lp1402
F0.5888888888888889
aF0.4111111111111111
aa(lp1403
F0.6396396396396397
aF0.36036036036036034
aa(lp1404
F0.4
aF0.6
aa(lp1405
F0.8476190476190476
aF0.1523809523809524
aa(lp1406
F0.7322834645669292
aF0.2677165354330709
aa(lp1407
F0.6981132075471698
aF0.3018867924528302
aa(lp1408
F0.7348484848484849
aF0.26515151515151514
aa(lp1409
F0.638095238095238
aF0.3619047619047619
aa(lp1410
F0.4927536231884058
aF0.5072463768115942
aa(lp1411
F0.47651006711409394
aF0.5234899328859061
aa(lp1412
F0.564625850340136
aF0.43537414965986393
aa(lp1413
F0.825
aF0.175
aa(lp1414
F0.8764044943820225
aF0.12359550561797752
aa(lp1415
F0.5483870967741935
aF0.45161290322580644
aa(lp1416
F0.84
aF0.16
aa(lp1417
F0.6235294117647059
aF0.3764705882352941
aa(lp1418
F0.4883720930232558
aF0.5116279069767442
aa(lp1419
F0.4864864864864865
aF0.5135135135135135
aa(lp1420
F0.7876106194690266
aF0.21238938053097345
aa(lp1421
F0.5544554455445545
aF0.44554455445544555
aa(lp1422
F0.6428571428571429
aF0.35714285714285715
aa(lp1423
F0.45918367346938777
aF0.5408163265306123
aa(lp1424
F0.7771739130434783
aF0.22282608695652173
aa(lp1425
F0.3333333333333333
aF0.6666666666666666
aa(lp1426
F0.6842105263157895
aF0.3157894736842105
aa(lp1427
F0.5384615384615384
aF0.46153846153846156
aa(lp1428
F0.7294117647058823
aF0.27058823529411763
aa(lp1429
F0.43478260869565216
aF0.5652173913043478
aa(lp1430
F0.7339901477832512
aF0.2660098522167488
aa(lp1431
F0.7891891891891892
aF0.21081081081081082
aa(lp1432
F0.5945945945945946
aF0.40540540540540543
aa(lp1433
F0.66
aF0.34
aa(lp1434
F0.6463414634146342
aF0.35365853658536583
aa(lp1435
F0.7636363636363637
aF0.23636363636363636
aa(lp1436
F0.4
aF0.6
aa(lp1437
F0.8315789473684211
aF0.16842105263157894
aa(lp1438
F0.5019957015658582
aF0.49800429843414185
aa(lp1439
F0.4583333333333333
aF0.5416666666666666
aa(lp1440
F0.9186376537369915
aF0.08136234626300852
aa(lp1441
F0.6235294117647059
aF0.3764705882352941
aa(lp1442
F0.5168539325842697
aF0.48314606741573035
aa(lp1443
F0.6363636363636364
aF0.36363636363636365
aa(lp1444
F0.4492753623188406
aF0.5507246376811594
aa(lp1445
F0.6513761467889908
aF0.3486238532110092
aa(lp1446
F0.8137254901960784
aF0.18627450980392157
aa(lp1447
F0.6194690265486725
aF0.3805309734513274
aa(lp1448
F0.6705882352941176
aF0.32941176470588235
aa(lp1449
F0.7357142857142858
aF0.2642857142857143
aa(lp1450
F0.7966101694915254
aF0.2033898305084746
aa(lp1451
F0.6507936507936508
aF0.3492063492063492
aa(lp1452
F0.7901785714285714
aF0.20982142857142858
aa(lp1453
F0.7088607594936709
aF0.2911392405063291
aa(lp1454
F0.6285714285714286
aF0.37142857142857144
aa(lp1455
F0.543859649122807
aF0.45614035087719296
aa(lp1456
F0.8666666666666667
aF0.13333333333333333
aa(lp1457
F0.4270833333333333
aF0.5729166666666666
aa(lp1458
F0.6724137931034483
aF0.3275862068965517
aa(lp1459
F0.5680933852140078
aF0.43190661478599224
aa(lp1460
F0.743801652892562
aF0.256198347107438
aa(lp1461
F0.6170212765957447
aF0.3829787234042553
aa(lp1462
F0.7837837837837838
aF0.21621621621621623
aa(lp1463
F0.7625
aF0.2375
aa(lp1464
F0.3157894736842105
aF0.6842105263157895
aa(lp1465
F0.7352941176470589
aF0.2647058823529412
aa(lp1466
F0.5223880597014925
aF0.47761194029850745
aa(lp1467
F0.6319358816276203
aF0.3680641183723798
aa(lp1468
F0.6607142857142857
aF0.3392857142857143
aa(lp1469
F0.8317307692307693
aF0.16826923076923078
aa(lp1470
F0.6197183098591549
aF0.38028169014084506
aa(lp1471
F0.8089887640449438
aF0.19101123595505617
aa(lp1472
F0.8103975535168195
aF0.18960244648318042
aa(lp1473
F0.5120481927710844
aF0.4879518072289157
aa(lp1474
F0.48175182481751827
aF0.5182481751824818
aa(lp1475
F0.5203252032520326
aF0.4796747967479675
aa(lp1476
F0.7619047619047619
aF0.23809523809523808
aa(lp1477
F0.5168539325842697
aF0.48314606741573035
aa(lp1478
F0.5955056179775281
aF0.4044943820224719
aa(lp1479
F0.5684210526315789
aF0.43157894736842106
aa(lp1480
F0.7037037037037037
aF0.2962962962962963
aa(lp1481
F0.8111111111111111
aF0.18888888888888888
aa(lp1482
F0.756578947368421
aF0.24342105263157895
aa(lp1483
F0.5838509316770186
aF0.4161490683229814
aa(lp1484
F0.6666666666666666
aF0.3333333333333333
aa(lp1485
F0.4339622641509434
aF0.5660377358490566
aa(lp1486
F0.7079646017699115
aF0.2920353982300885
aa(lp1487
F0.36904761904761907
aF0.6309523809523809
aa(lp1488
F0.6206896551724138
aF0.3793103448275862
aa(lp1489
F0.8682634730538922
aF0.1317365269461078
aa(lp1490
F0.6
aF0.4
aa(lp1491
F0.8186813186813187
aF0.1813186813186813
aa(lp1492
F0.5714285714285714
aF0.42857142857142855
aa(lp1493
F0.631578947368421
aF0.3684210526315789
aa(lp1494
F0.6862745098039216
aF0.3137254901960784
aa(lp1495
F0.45714285714285713
aF0.5428571428571428
aa(lp1496
F0.8766519823788547
aF0.12334801762114538
aa(lp1497
F0.5578947368421052
aF0.4421052631578947
aa(lp1498
F0.76171875
aF0.23828125
aa(lp1499
F0.4605263157894737
aF0.5394736842105263
aa(lp1500
F0.4878048780487805
aF0.5121951219512195
aa(lp1501
F0.7742718446601942
aF0.22572815533980584
aa(lp1502
F0.6373626373626373
aF0.3626373626373626
aa(lp1503
F0.695364238410596
aF0.304635761589404
aa(lp1504
F0.9083969465648855
aF0.0916030534351145
aa(lp1505
F0.7704918032786885
aF0.22950819672131148
aa(lp1506
F0.6503496503496503
aF0.34965034965034963
aa(lp1507
F0.7209302325581395
aF0.27906976744186046
aa(lp1508
F0.7046632124352331
aF0.29533678756476683
aa(lp1509
F0.5789473684210527
aF0.42105263157894735
aa(lp1510
F0.586046511627907
aF0.413953488372093
aa(lp1511
F0.710691823899371
aF0.2893081761006289
aa(lp1512
F0.7461538461538462
aF0.25384615384615383
aa(lp1513
F0.8137931034482758
aF0.18620689655172415
aa(lp1514
F0.6323529411764706
aF0.36764705882352944
aa(lp1515
F0.78
aF0.22
aa(lp1516
F0.5169491525423728
aF0.4830508474576271
aa(lp1517
F0.632183908045977
aF0.367816091954023
aa(lp1518
F0.5195530726256983
aF0.48044692737430167
aa(lp1519
F0.7307692307692307
aF0.2692307692307692
aa(lp1520
F0.5923076923076923
aF0.4076923076923077
aa(lp1521
F0.8373493975903614
aF0.16265060240963855
aa(lp1522
F0.5409836065573771
aF0.45901639344262296
aa(lp1523
F0.42105263157894735
aF0.5789473684210527
aa(lp1524
F0.6811594202898551
aF0.3188405797101449
aa(lp1525
F0.7014925373134329
aF0.29850746268656714
aa(lp1526
F0.6470588235294118
aF0.35294117647058826
aa(lp1527
F0.8349056603773585
aF0.1650943396226415
aa(lp1528
F0.5185185185185185
aF0.48148148148148145
aa(lp1529
F0.6187050359712231
aF0.381294964028777
aa(lp1530
F0.5747126436781609
aF0.42528735632183906
aa(lp1531
F0.7738095238095238
aF0.2261904761904762
aa(lp1532
F0.5294117647058824
aF0.47058823529411764
aa(lp1533
F0.6974789915966386
aF0.3025210084033613
aa(lp1534
F0.3953488372093023
aF0.6046511627906976
aa(lp1535
F0.696078431372549
aF0.30392156862745096
aa(lp1536
F0.8844444444444445
aF0.11555555555555555
aa(lp1537
F0.9117647058823529
aF0.08823529411764706
aa(lp1538
F0.5483870967741935
aF0.45161290322580644
aa(lp1539
F0.7591240875912408
aF0.24087591240875914
aa(lp1540
F0.6666666666666666
aF0.3333333333333333
aa(lp1541
F0.4222222222222222
aF0.5777777777777777
aa(lp1542
F0.8181818181818182
aF0.18181818181818182
aa(lp1543
F0.9205150976909414
aF0.07948490230905861
aa(lp1544
F0.9201388888888888
aF0.0798611111111111
aa(lp1545
F0.7019867549668874
aF0.2980132450331126
aa(lp1546
F0.5433287482806052
aF0.45667125171939477
aa(lp1547
F0.6963562753036437
aF0.30364372469635625
aa(lp1548
F0.7586206896551724
aF0.2413793103448276
aa(lp1549
F0.5531914893617021
aF0.44680851063829785
aa(lp1550
F0.6153846153846154
aF0.38461538461538464
aa(lp1551
F0.8766233766233766
aF0.12337662337662338
aa(lp1552
F0.7254901960784313
aF0.27450980392156865
aa(lp1553
F0.6692913385826772
aF0.33070866141732286
aa(lp1554
F0.8106060606060606
aF0.1893939393939394
aa(lp1555
F0.8372093023255814
aF0.16279069767441862
aa(lp1556
F0.717391304347826
aF0.2826086956521739
aa(lp1557
F0.6865671641791045
aF0.31343283582089554
aa(lp1558
F0.610738255033557
aF0.38926174496644295
aa(lp1559
F0.8098159509202454
aF0.1901840490797546
aa(lp1560
F0.8406593406593407
aF0.15934065934065933
aa(lp1561
F0.26666666666666666
aF0.7333333333333333
aa(lp1562
F0.7777777777777778
aF0.2222222222222222
aa(lp1563
F0.7929515418502202
aF0.20704845814977973
aa(lp1564
F0.5945945945945946
aF0.40540540540540543
aa(lp1565
F0.782051282051282
aF0.21794871794871795
aa(lp1566
F0.7887323943661971
aF0.2112676056338028
aa(lp1567
F0.7380952380952381
aF0.2619047619047619
aa(lp1568
F0.6160714285714286
aF0.38392857142857145
aa(lp1569
F0.3950617283950617
aF0.6049382716049383
aa(lp1570
F0.6048780487804878
aF0.3951219512195122
aa(lp1571
F0.6929133858267716
aF0.30708661417322836
aa(lp1572
F0.6956521739130435
aF0.30434782608695654
aa(lp1573
F0.5737704918032787
aF0.4262295081967213
aa(lp1574
F0.7903225806451613
aF0.20967741935483872
aa(lp1575
F0.9078014184397163
aF0.09219858156028368
aa(lp1576
F0.8129496402877698
aF0.18705035971223022
aa(lp1577
F0.5964912280701754
aF0.40350877192982454
aa(lp1578
F0.6883720930232559
aF0.3116279069767442
aa(lp1579
F0.4230769230769231
aF0.5769230769230769
aa(lp1580
F0.484375
aF0.515625
aa(lp1581
F0.7644628099173554
aF0.23553719008264462
aa(lp1582
F0.7307692307692307
aF0.2692307692307692
aa(lp1583
F0.6792452830188679
aF0.32075471698113206
aa(lp1584
F0.6336633663366337
aF0.36633663366336633
aa(lp1585
F0.7294117647058823
aF0.27058823529411763
aa(lp1586
F0.6166666666666667
aF0.38333333333333336
aa(lp1587
F0.8469945355191257
aF0.15300546448087432
aa(lp1588
F0.3375
aF0.6625
aa(lp1589
F0.813953488372093
aF0.18604651162790697
aa(lp1590
F0.6326530612244898
aF0.3673469387755102
aa(lp1591
F0.695
aF0.305
aa(lp1592
F0.8648449039881831
aF0.13515509601181683
aa(lp1593
F0.3411764705882353
aF0.6588235294117647
aa(lp1594
F0.7956989247311828
aF0.20430107526881722
aa(lp1595
F0.8
aF0.2
aa(lp1596
F0.8481012658227848
aF0.1518987341772152
aa(lp1597
F0.8240223463687151
aF0.17597765363128492
aa(lp1598
F0.810126582278481
aF0.189873417721519
aa(lp1599
F0.6212121212121212
aF0.3787878787878788
aa(lp1600
F0.5802469135802469
aF0.41975308641975306
aa(lp1601
F0.8888888888888888
aF0.1111111111111111
aa(lp1602
F0.8884615384615384
aF0.11153846153846154
aa(lp1603
F0.5
aF0.5
aa(lp1604
F0.6049382716049383
aF0.3950617283950617
aa(lp1605
F0.7263157894736842
aF0.2736842105263158
aa(lp1606
F0.7878787878787878
aF0.21212121212121213
aa(lp1607
F0.7103448275862069
aF0.2896551724137931
aa(lp1608
F0.323943661971831
aF0.676056338028169
aa(lp1609
F0.6697247706422018
aF0.3302752293577982
aa(lp1610
F0.84
aF0.16
aa(lp1611
F0.4433497536945813
aF0.5566502463054187
aa(lp1612
F0.7358490566037735
aF0.2641509433962264
aa(lp1613
F0.6833333333333333
aF0.31666666666666665
aa(lp1614
F0.7155172413793104
aF0.28448275862068967
aa(lp1615
F0.47115384615384615
aF0.5288461538461539
aa(lp1616
F0.6428571428571429
aF0.35714285714285715
aa(lp1617
F0.43333333333333335
aF0.5666666666666667
aa(lp1618
F0.5344827586206896
aF0.46551724137931033
aa(lp1619
F0.77
aF0.23
aa(lp1620
F0.7252747252747253
aF0.27472527472527475
aa(lp1621
F0.8181818181818182
aF0.18181818181818182
aa(lp1622
F0.76
aF0.24
aa(lp1623
F0.5806451612903226
aF0.41935483870967744
aa(lp1624
F0.5862068965517241
aF0.41379310344827586
aa(lp1625
F0.7142857142857143
aF0.2857142857142857
aa(lp1626
F0.7777777777777778
aF0.2222222222222222
aa(lp1627
F0.6138613861386139
aF0.38613861386138615
aa(lp1628
F0.352
aF0.648
aa(lp1629
F0.752411575562701
aF0.24758842443729903
aa(lp1630
F0.8692307692307693
aF0.13076923076923078
aa(lp1631
F0.6593406593406593
aF0.34065934065934067
aa(lp1632
F0.8199152542372882
aF0.18008474576271186
aa(lp1633
F0.38028169014084506
aF0.6197183098591549
aa(lp1634
F0.4166666666666667
aF0.5833333333333334
aa(lp1635
F0.5338345864661654
aF0.46616541353383456
aa(lp1636
F0.5966386554621849
aF0.40336134453781514
aa(lp1637
F0.44871794871794873
aF0.5512820512820513
aa(lp1638
F0.8819875776397516
aF0.11801242236024845
aa(lp1639
F0.7761194029850746
aF0.22388059701492538
aa(lp1640
F0.6129032258064516
aF0.3870967741935484
aa(lp1641
F0.6875
aF0.3125
aa(lp1642
F0.8106508875739645
aF0.1893491124260355
aa(lp1643
F0.8155339805825242
aF0.18446601941747573
aa(lp1644
F0.6071428571428571
aF0.39285714285714285
aa(lp1645
F0.735
aF0.265
aa(lp1646
F0.859375
aF0.140625
aa(lp1647
F0.48
aF0.52
aa(lp1648
F0.7101449275362319
aF0.2898550724637681
aa(lp1649
F0.7333333333333333
aF0.26666666666666666
aa(lp1650
F0.5405405405405406
aF0.4594594594594595
aa(lp1651
F0.4782608695652174
aF0.5217391304347826
aa(lp1652
F0.5979381443298969
aF0.4020618556701031
aa(lp1653
F0.8326996197718631
aF0.16730038022813687
aa(lp1654
F0.6379310344827587
aF0.3620689655172414
aa(lp1655
F0.7307692307692307
aF0.2692307692307692
aa(lp1656
F0.7182320441988951
aF0.281767955801105
aa(lp1657
F0.7935222672064778
aF0.20647773279352227
aa(lp1658
F0.6395348837209303
aF0.36046511627906974
aa(lp1659
F0.6129032258064516
aF0.3870967741935484
aa(lp1660
F0.8132183908045977
aF0.1867816091954023
aa(lp1661
F0.7
aF0.3
aa(lp1662
F0.5041322314049587
aF0.49586776859504134
aa(lp1663
F0.84
aF0.16
aa(lp1664
F0.6724137931034483
aF0.3275862068965517
aa(lp1665
F0.6875
aF0.3125
aa(lp1666
F0.7669172932330827
aF0.23308270676691728
aa(lp1667
F0.5681818181818182
aF0.4318181818181818
aa(lp1668
F0.7361111111111112
aF0.2638888888888889
aa(lp1669
F0.6710526315789473
aF0.32894736842105265
aa(lp1670
F0.8894009216589862
aF0.11059907834101383
aa(lp1671
F0.7166666666666667
aF0.2833333333333333
aa(lp1672
F0.7368421052631579
aF0.2631578947368421
aa(lp1673
F0.5185185185185185
aF0.48148148148148145
aa(lp1674
F0.7083333333333334
aF0.2916666666666667
aa(lp1675
F0.8441558441558441
aF0.15584415584415584
aa(lp1676
F0.3389830508474576
aF0.6610169491525424
aa(lp1677
F0.5752688172043011
aF0.42473118279569894
aa(lp1678
F0.75
aF0.25
aa(lp1679
F0.625
aF0.375
aa(lp1680
F0.7799511002444988
aF0.2200488997555012
aa(lp1681
F0.8269230769230769
aF0.17307692307692307
aa(lp1682
F0.4166666666666667
aF0.5833333333333334
aa(lp1683
F0.7162162162162162
aF0.28378378378378377
aa(lp1684
F0.5902439024390244
aF0.4097560975609756
aa(lp1685
F0.42028985507246375
aF0.5797101449275363
aa(lp1686
F0.589041095890411
aF0.410958904109589
aa(lp1687
F0.5526315789473685
aF0.4473684210526316
aa(lp1688
F0.4583333333333333
aF0.5416666666666666
aa(lp1689
F0.6081081081081081
aF0.3918918918918919
aa(lp1690
F0.6363636363636364
aF0.36363636363636365
aa(lp1691
F0.9097938144329897
aF0.09020618556701031
aa(lp1692
F0.6
aF0.4
aa(lp1693
F0.4583333333333333
aF0.5416666666666666
aa(lp1694
F0.8685714285714285
aF0.13142857142857142
aa(lp1695
F0.4954128440366973
aF0.5045871559633027
aa(lp1696
F0.68
aF0.32
aa(lp1697
F0.6041666666666666
aF0.3958333333333333
aa(lp1698
F0.5925925925925926
aF0.4074074074074074
aa(lp1699
F0.8204081632653061
aF0.17959183673469387
aa(lp1700
F0.717391304347826
aF0.2826086956521739
aa(lp1701
F0.573708647707487
aF0.4262913522925131
aa(lp1702
F0.7346938775510204
aF0.2653061224489796
aa(lp1703
F0.696969696969697
aF0.30303030303030304
aa(lp1704
F0.6307692307692307
aF0.36923076923076925
aa(lp1705
F0.6666666666666666
aF0.3333333333333333
aa(lp1706
F0.5648148148148148
aF0.4351851851851852
aa(lp1707
F0.3698630136986301
aF0.6301369863013698
aa(lp1708
F0.7951807228915663
aF0.20481927710843373
aa(lp1709
F0.7604166666666666
aF0.23958333333333334
aa(lp1710
F0.5454545454545454
aF0.45454545454545453
aa(lp1711
F0.7412935323383084
aF0.25870646766169153
aa(lp1712
F0.6818181818181818
aF0.3181818181818182
aa(lp1713
F0.7423312883435583
aF0.25766871165644173
aa(lp1714
F0.5384615384615384
aF0.46153846153846156
aa(lp1715
F0.6739130434782609
aF0.32608695652173914
aa(lp1716
F0.43636363636363634
aF0.5636363636363636
aa(lp1717
F0.41379310344827586
aF0.5862068965517241
aa(lp1718
F0.738498789346247
aF0.26150121065375304
aa(lp1719
F0.7692307692307693
aF0.23076923076923078
aa(lp1720
F0.7990654205607477
aF0.20093457943925233
aa(lp1721
F0.7631578947368421
aF0.23684210526315788
aa(lp1722
F0.3333333333333333
aF0.6666666666666666
aa(lp1723
F0.7045454545454546
aF0.29545454545454547
aa(lp1724
F0.6951219512195121
aF0.3048780487804878
aa(lp1725
F0.6907216494845361
aF0.30927835051546393
aa(lp1726
F0.6440677966101694
aF0.3559322033898305
aa(lp1727
F0.6102941176470589
aF0.3897058823529412
aa(lp1728
F0.8787878787878788
aF0.12121212121212122
aa(lp1729
F0.40963855421686746
aF0.5903614457831325
aa(lp1730
F0.627906976744186
aF0.37209302325581395
aa(lp1731
F0.6847826086956522
aF0.31521739130434784
aa(lp1732
F0.7377049180327869
aF0.26229508196721313
aa(lp1733
F0.7409638554216867
aF0.25903614457831325
aa(lp1734
F0.4225352112676056
aF0.5774647887323944
aa(lp1735
F0.8754789272030651
aF0.12452107279693486
aa(lp1736
F0.3888888888888889
aF0.6111111111111112
aa(lp1737
F0.6990291262135923
aF0.30097087378640774
aa(lp1738
F0.918552036199095
aF0.08144796380090498
aa(lp1739
F0.7245508982035929
aF0.2754491017964072
aa(lp1740
F0.7407407407407407
aF0.25925925925925924
aa(lp1741
F0.5727272727272728
aF0.42727272727272725
aa(lp1742
F0.7547974413646056
aF0.24520255863539445
aa(lp1743
F0.6385542168674698
aF0.3614457831325301
aa(lp1744
F0.7368421052631579
aF0.2631578947368421
aa(lp1745
F0.7560975609756098
aF0.24390243902439024
aa(lp1746
F0.7169811320754716
aF0.2830188679245283
aa(lp1747
F0.9189873417721519
aF0.0810126582278481
aa(lp1748
F0.7096774193548387
aF0.2903225806451613
aa(lp1749
F0.6231884057971014
aF0.37681159420289856
aa(lp1750
F0.6116504854368932
aF0.3883495145631068
aa(lp1751
F0.631578947368421
aF0.3684210526315789
aa(lp1752
F0.686046511627907
aF0.313953488372093
aa(lp1753
F0.6547619047619048
aF0.34523809523809523
aa(lp1754
F0.3230769230769231
aF0.676923076923077
aa(lp1755
F0.6214953271028038
aF0.37850467289719625
aa(lp1756
F0.9072327044025157
aF0.09276729559748427
aa(lp1757
F0.8285714285714286
aF0.17142857142857143
aa(lp1758
F0.3793103448275862
aF0.6206896551724138
aa(lp1759
F0.7934782608695652
aF0.20652173913043478
aa(lp1760
F0.632
aF0.368
aa(lp1761
F0.7665094339622641
aF0.23349056603773585
aa(lp1762
F0.6702702702702703
aF0.32972972972972975
aa(lp1763
F0.8271028037383178
aF0.17289719626168223
aa(lp1764
F0.725
aF0.275
aa(lp1765
F0.3181818181818182
aF0.6818181818181818
aa(lp1766
F0.8142076502732241
aF0.18579234972677597
aa(lp1767
F0.7783251231527094
aF0.22167487684729065
aa(lp1768
F0.6615384615384615
aF0.3384615384615385
aa(lp1769
F0.5770609318996416
aF0.4229390681003584
aa(lp1770
F0.5040650406504065
aF0.4959349593495935
aa(lp1771
F0.47058823529411764
aF0.5294117647058824
aa(lp1772
F0.35294117647058826
aF0.6470588235294118
aa(lp1773
F0.6699029126213593
aF0.3300970873786408
aa(lp1774
F0.8619528619528619
aF0.13804713804713806
aa(lp1775
F0.6222222222222222
aF0.37777777777777777
aa(lp1776
F0.7049180327868853
aF0.29508196721311475
aa(lp1777
F0.8514851485148515
aF0.1485148514851485
aa(lp1778
F0.6223776223776224
aF0.3776223776223776
aa(lp1779
F0.37777777777777777
aF0.6222222222222222
aa(lp1780
F0.5517241379310345
aF0.4482758620689655
aa(lp1781
F0.7333333333333333
aF0.26666666666666666
aa(lp1782
F0.7804878048780488
aF0.21951219512195122
aa(lp1783
F0.8527315914489311
aF0.14726840855106887
aa(lp1784
F0.6582278481012658
aF0.34177215189873417
aa(lp1785
F0.723404255319149
aF0.2765957446808511
aa(lp1786
F0.7272727272727273
aF0.2727272727272727
aa(lp1787
F0.8143459915611815
aF0.18565400843881857
aa(lp1788
F0.6865671641791045
aF0.31343283582089554
aa(lp1789
F0.7888888888888889
aF0.2111111111111111
aa(lp1790
F0.5535714285714286
aF0.44642857142857145
aa(lp1791
F0.4647887323943662
aF0.5352112676056338
aa(lp1792
F0.5609756097560976
aF0.43902439024390244
aa(lp1793
F0.6694915254237288
aF0.3305084745762712
aa(lp1794
F0.8192771084337349
aF0.18072289156626506
aa(lp1795
F0.7852941176470588
aF0.21470588235294116
aa(lp1796
F0.7083333333333334
aF0.2916666666666667
aa(lp1797
F0.900709219858156
aF0.09929078014184398
aa(lp1798
F0.7248322147651006
aF0.2751677852348993
aa(lp1799
F0.7559523809523809
aF0.24404761904761904
aa(lp1800
F0.6551724137931034
aF0.3448275862068966
aa(lp1801
F0.7819548872180451
aF0.21804511278195488
aa(lp1802
F0.7692307692307693
aF0.23076923076923078
aa(lp1803
F0.8370786516853933
aF0.16292134831460675
aa(lp1804
F0.908183632734531
aF0.09181636726546906
aa(lp1805
F0.810126582278481
aF0.189873417721519
aa(lp1806
F0.8781725888324873
aF0.1218274111675127
aa(lp1807
F0.9140625
aF0.0859375
aa(lp1808
F0.6966292134831461
aF0.30337078651685395
aa(lp1809
F0.9437340153452686
aF0.056265984654731455
aa(lp1810
F0.65
aF0.35
aa(lp1811
F0.7733333333333333
aF0.22666666666666666
aa(lp1812
F0.8775510204081632
aF0.12244897959183673
aa(lp1813
F0.7195121951219512
aF0.2804878048780488
aa(lp1814
F0.734375
aF0.265625
aa(lp1815
F0.5454545454545454
aF0.45454545454545453
aa(lp1816
F0.923728813559322
aF0.07627118644067797
aa(lp1817
F0.6737588652482269
aF0.3262411347517731
aa(lp1818
F0.907258064516129
aF0.09274193548387097
aa(lp1819
F0.7384615384615385
aF0.26153846153846155
aa(lp1820
F0.7560975609756098
aF0.24390243902439024
aa(lp1821
F0.6078431372549019
aF0.39215686274509803
aa(lp1822
F0.676056338028169
aF0.323943661971831
aa(lp1823
F0.8478260869565217
aF0.15217391304347827
aa(lp1824
F0.9051383399209486
aF0.09486166007905138
aa(lp1825
F0.773109243697479
aF0.226890756302521
aa(lp1826
F0.8496732026143791
aF0.1503267973856209
aa(lp1827
F0.8614457831325302
aF0.13855421686746988
aa(lp1828
F0.8333333333333334
aF0.16666666666666666
aa(lp1829
F0.6310679611650486
aF0.36893203883495146
aa(lp1830
F0.907563025210084
aF0.09243697478991597
aa(lp1831
F0.8705882352941177
aF0.12941176470588237
aa(lp1832
F0.7967032967032966
aF0.2032967032967033
aa(lp1833
F0.6908212560386473
aF0.30917874396135264
aa(lp1834
F0.7191780821917808
aF0.2808219178082192
aa(lp1835
F0.8243335611756665
aF0.17566643882433355
aa(lp1836
F0.6976744186046512
aF0.3023255813953488
aa(lp1837
F0.8433734939759037
aF0.1566265060240964
aa(lp1838
F0.6493506493506493
aF0.35064935064935066
aa(lp1839
F0.8307692307692308
aF0.16923076923076924
aa(lp1840
F0.7572815533980582
aF0.24271844660194175
aa(lp1841
F0.6
aF0.4
aa(lp1842
F0.6056338028169014
aF0.39436619718309857
aa(lp1843
F0.5555555555555556
aF0.4444444444444444
aa(lp1844
F0.7408536585365854
aF0.25914634146341464
aa(lp1845
F0.7727272727272727
aF0.22727272727272727
aa(lp1846
F0.8666666666666667
aF0.13333333333333333
aa(lp1847
F0.8229166666666666
aF0.17708333333333334
aa(lp1848
F0.9565217391304348
aF0.043478260869565216
aa(lp1849
F0.8333333333333334
aF0.16666666666666666
aa(lp1850
F0.8794326241134752
aF0.12056737588652482
aa(lp1851
F0.7435897435897436
aF0.2564102564102564
aa(lp1852
F0.9095744680851063
aF0.09042553191489362
aa(lp1853
F0.80625
aF0.19375
aa(lp1854
F0.8245967741935484
aF0.17540322580645162
aa(lp1855
F0.5862068965517241
aF0.41379310344827586
aa(lp1856
F0.7962962962962963
aF0.2037037037037037
aa(lp1857
F0.8137931034482758
aF0.18620689655172415
aa(lp1858
F0.8776371308016878
aF0.12236286919831224
aa(lp1859
F0.7205882352941176
aF0.27941176470588236
aa(lp1860
F0.5625
aF0.4375
aa(lp1861
F0.8240740740740741
aF0.17592592592592593
aa(lp1862
F0.7407407407407407
aF0.25925925925925924
aa(lp1863
F0.5461538461538461
aF0.45384615384615384
aa(lp1864
F0.35359116022099446
aF0.6464088397790055
aa(lp1865
F0.8559782608695652
aF0.14402173913043478
aa(lp1866
F0.5192307692307693
aF0.4807692307692308
aa(lp1867
F0.6710526315789473
aF0.32894736842105265
aa(lp1868
F0.5465116279069767
aF0.45348837209302323
aa(lp1869
F0.8482142857142857
aF0.15178571428571427
aa(lp1870
F0.8522727272727273
aF0.14772727272727273
aa(lp1871
F0.8458049886621315
aF0.15419501133786848
aa(lp1872
F0.668
aF0.332
aa(lp1873
F0.6410256410256411
aF0.358974358974359
aa(lp1874
F0.7579617834394905
aF0.24203821656050956
aa(lp1875
F0.9366812227074236
aF0.06331877729257641
aa(lp1876
F0.44166666666666665
aF0.5583333333333333
aa(lp1877
F0.6419753086419753
aF0.35802469135802467
aa(lp1878
F0.6428571428571429
aF0.35714285714285715
aa(lp1879
F0.766120218579235
aF0.23387978142076501
aa(lp1880
F0.48484848484848486
aF0.5151515151515151
aa(lp1881
F0.6551724137931034
aF0.3448275862068966
aa(lp1882
F0.8717948717948718
aF0.1282051282051282
aa(lp1883
F0.676056338028169
aF0.323943661971831
aa(lp1884
F0.5476190476190477
aF0.4523809523809524
aa(lp1885
F0.8461538461538461
aF0.15384615384615385
aa(lp1886
F0.8493150684931506
aF0.1506849315068493
aa(lp1887
F0.669260700389105
aF0.33073929961089493
aa(lp1888
F0.7647058823529411
aF0.23529411764705882
aa(lp1889
F0.8663793103448276
aF0.1336206896551724
aa(lp1890
F0.7672955974842768
aF0.23270440251572327
aa(lp1891
F0.8555555555555555
aF0.14444444444444443
aa(lp1892
F0.9041095890410958
aF0.0958904109589041
aa(lp1893
F0.6826923076923077
aF0.3173076923076923
aa(lp1894
F0.5520833333333334
aF0.4479166666666667
aa(lp1895
F0.6915887850467289
aF0.308411214953271
aa(lp1896
F0.7
aF0.3
aa(lp1897
F0.8034188034188035
aF0.19658119658119658
aa(lp1898
F0.8883248730964467
aF0.1116751269035533
aa(lp1899
F0.4563758389261745
aF0.5436241610738255
aa(lp1900
F0.6216216216216216
aF0.3783783783783784
aa(lp1901
F0.7465346534653465
aF0.25346534653465347
aa(lp1902
F0.8775510204081632
aF0.12244897959183673
aa(lp1903
F0.8256880733944955
aF0.1743119266055046
aa(lp1904
F0.7176470588235294
aF0.2823529411764706
aa(lp1905
F0.7058823529411765
aF0.29411764705882354
aa(lp1906
F0.7636363636363637
aF0.23636363636363636
aa(lp1907
F0.9034175334323923
aF0.09658246656760773
aa(lp1908
F0.8348348348348348
aF0.16516516516516516
aa(lp1909
F0.7674418604651163
aF0.23255813953488372
aa(lp1910
F0.8492871690427699
aF0.15071283095723015
aa(lp1911
F0.7956204379562044
aF0.20437956204379562
aa(lp1912
F0.7131782945736435
aF0.2868217054263566
aa(lp1913
F0.7628865979381443
aF0.23711340206185566
aa(lp1914
F0.31666666666666665
aF0.6833333333333333
aa(lp1915
F0.860655737704918
aF0.13934426229508196
aa(lp1916
F0.75
aF0.25
aa(lp1917
F0.8151658767772512
aF0.1848341232227488
aa(lp1918
F0.7289719626168224
aF0.27102803738317754
aa(lp1919
F0.7058823529411765
aF0.29411764705882354
aa(lp1920
F0.6067415730337079
aF0.39325842696629215
aa(lp1921
F0.7928571428571428
aF0.20714285714285716
aa(lp1922
F0.696969696969697
aF0.30303030303030304
aa(lp1923
F0.7209302325581395
aF0.27906976744186046
aa(lp1924
F0.9591836734693877
aF0.04081632653061224
aa(lp1925
F0.7258064516129032
aF0.27419354838709675
aa(lp1926
F0.7898089171974523
aF0.21019108280254778
aa(lp1927
F0.5675675675675675
aF0.43243243243243246
aa(lp1928
F0.7777777777777778
aF0.2222222222222222
aa(lp1929
F0.6666666666666666
aF0.3333333333333333
aa(lp1930
F0.6052631578947368
aF0.39473684210526316
aa(lp1931
F0.625
aF0.375
aa(lp1932
F0.68
aF0.32
aa(lp1933
F0.8208955223880597
aF0.1791044776119403
aa(lp1934
F0.7764705882352941
aF0.2235294117647059
aa(lp1935
F0.75
aF0.25
aa(lp1936
F0.4861111111111111
aF0.5138888888888888
aa(lp1937
F0.7096774193548387
aF0.2903225806451613
aa(lp1938
F0.8981818181818182
aF0.10181818181818182
aa(lp1939
F0.9019108280254777
aF0.0980891719745223
aa(lp1940
F0.5542168674698795
aF0.4457831325301205
aa(lp1941
F0.6455696202531646
aF0.35443037974683544
aa(lp1942
F0.46938775510204084
aF0.5306122448979592
aa(lp1943
F0.6941176470588235
aF0.3058823529411765
aa(lp1944
F0.8072289156626506
aF0.1927710843373494
aa(lp1945
F0.7123287671232876
aF0.2876712328767123
aa(lp1946
F0.632183908045977
aF0.367816091954023
aa(lp1947
F0.8353253652058433
aF0.1646746347941567
aa(lp1948
F0.9235537190082644
aF0.07644628099173553
aa(lp1949
F0.6101694915254238
aF0.3898305084745763
aa(lp1950
F0.7142857142857143
aF0.2857142857142857
aa(lp1951
F0.35294117647058826
aF0.6470588235294118
aa(lp1952
F0.5478260869565217
aF0.45217391304347826
aa(lp1953
F0.8867562380038387
aF0.11324376199616124
aa(lp1954
F0.6956521739130435
aF0.30434782608695654
aa(lp1955
F0.8674351585014409
aF0.13256484149855907
aa(lp1956
F0.8074324324324325
aF0.19256756756756757
aa(lp1957
F0.6
aF0.4
aa(lp1958
F0.8870431893687708
aF0.11295681063122924
aa(lp1959
F0.7451923076923077
aF0.2548076923076923
aa(lp1960
F0.671875
aF0.328125
aa(lp1961
F0.9002976190476191
aF0.09970238095238096
aa(lp1962
F0.9444444444444444
aF0.05555555555555555
aa(lp1963
F0.5283018867924528
aF0.4716981132075472
aa(lp1964
F0.782051282051282
aF0.21794871794871795
aa(lp1965
F0.41975308641975306
aF0.5802469135802469
aa(lp1966
F0.6521739130434783
aF0.34782608695652173
aa(lp1967
F0.8461538461538461
aF0.15384615384615385
aa(lp1968
F0.7567567567567568
aF0.24324324324324326
aa(lp1969
F0.8215767634854771
aF0.17842323651452283
aa(lp1970
F0.7307692307692307
aF0.2692307692307692
aa(lp1971
F0.875
aF0.125
aa(lp1972
F0.8194444444444444
aF0.18055555555555555
aa(lp1973
F0.7428571428571429
aF0.2571428571428571
aa(lp1974
F0.7222222222222222
aF0.2777777777777778
aa(lp1975
F0.7804878048780488
aF0.21951219512195122
aa(lp1976
F0.803030303030303
aF0.19696969696969696
aa(lp1977
F0.6484848484848484
aF0.3515151515151515
aa(lp1978
F0.8694690265486725
aF0.13053097345132744
aa(lp1979
F0.5306122448979592
aF0.46938775510204084
aa(lp1980
F0.8058252427184466
aF0.1941747572815534
aa(lp1981
F0.6940298507462687
aF0.30597014925373134
aa(lp1982
F0.7721021611001965
aF0.22789783889980353
aa(lp1983
F0.8466666666666667
aF0.15333333333333332
aa(lp1984
F0.7678571428571429
aF0.23214285714285715
aa(lp1985
F0.801980198019802
aF0.19801980198019803
aa(lp1986
F0.9301848049281314
aF0.06981519507186858
aa(lp1987
F0.8169014084507042
aF0.18309859154929578
aa(lp1988
F0.7317073170731707
aF0.2682926829268293
aa(lp1989
F0.8985507246376812
aF0.10144927536231885
aa(lp1990
F0.7321428571428571
aF0.26785714285714285
aa(lp1991
F0.9183006535947712
aF0.08169934640522876
aa(lp1992
F0.8586118251928021
aF0.14138817480719795
aa(lp1993
F0.8930817610062893
aF0.1069182389937107
aa(lp1994
F0.6385542168674698
aF0.3614457831325301
aa(lp1995
F0.84
aF0.16
aa(lp1996
F0.7916666666666666
aF0.20833333333333334
aa(lp1997
F0.8497652582159625
aF0.15023474178403756
aa(lp1998
F0.9190140845070423
aF0.08098591549295775
aa(lp1999
F0.7719298245614035
aF0.22807017543859648
aa(lp2000
F0.5145985401459854
aF0.4854014598540146
aa(lp2001
F0.9387755102040817
aF0.061224489795918366
aa(lp2002
F0.6052631578947368
aF0.39473684210526316
aa(lp2003
F0.5818181818181818
aF0.41818181818181815
aa(lp2004
F0.6444444444444445
aF0.35555555555555557
aa(lp2005
F0.8571428571428571
aF0.14285714285714285
aa(lp2006
F0.6949152542372882
aF0.3050847457627119
aa(lp2007
F0.7313432835820896
aF0.26865671641791045
aa(lp2008
F0.6927710843373494
aF0.3072289156626506
aa(lp2009
F0.8443804034582133
aF0.15561959654178675
aa(lp2010
F0.745697896749522
aF0.25430210325047803
aa(lp2011
F0.7941176470588235
aF0.20588235294117646
aa(lp2012
F0.8372703412073491
aF0.16272965879265092
aa(lp2013
F0.6605504587155964
aF0.3394495412844037
aa(lp2014
F0.5714285714285714
aF0.42857142857142855
aa(lp2015
F0.7288135593220338
aF0.2711864406779661
aa(lp2016
F0.8648648648648649
aF0.13513513513513514
aa(lp2017
F0.39215686274509803
aF0.6078431372549019
aa(lp2018
F0.7922077922077922
aF0.2077922077922078
aa(lp2019
F0.8540372670807453
aF0.14596273291925466
aa(lp2020
F0.8854961832061069
aF0.11450381679389313
aa(lp2021
F0.8108108108108109
aF0.1891891891891892
aa(lp2022
F0.8655172413793103
aF0.13448275862068965
aa(lp2023
F0.8507462686567164
aF0.14925373134328357
aa(lp2024
F0.7597765363128491
aF0.24022346368715083
aa(lp2025
F0.8777777777777778
aF0.12222222222222222
aa(lp2026
F0.7330729166666666
aF0.2669270833333333
aa(lp2027
F0.6
aF0.4
aa(lp2028
F0.7349397590361446
aF0.26506024096385544
aa(lp2029
F0.6878612716763006
aF0.31213872832369943
aa(lp2030
F0.75
aF0.25
aa(lp2031
F0.6666666666666666
aF0.3333333333333333
aa(lp2032
F0.8974358974358975
aF0.10256410256410256
aa(lp2033
F0.3877551020408163
aF0.6122448979591837
aa(lp2034
F0.8294930875576036
aF0.17050691244239632
aa(lp2035
F0.7446808510638298
aF0.2553191489361702
aa(lp2036
F0.7288135593220338
aF0.2711864406779661
aa(lp2037
F0.7096774193548387
aF0.2903225806451613
aa(lp2038
F0.4787234042553192
aF0.5212765957446809
aa(lp2039
F0.7678571428571429
aF0.23214285714285715
aa(lp2040
F0.8941176470588236
aF0.10588235294117647
aa(lp2041
F0.7394957983193278
aF0.2605042016806723
aa(lp2042
F0.5824175824175825
aF0.4175824175824176
aa(lp2043
F0.6338028169014085
aF0.36619718309859156
aa(lp2044
F0.6764705882352942
aF0.3235294117647059
aa(lp2045
F0.8258426966292135
aF0.17415730337078653
aa(lp2046
F0.8104575163398693
aF0.1895424836601307
aa(lp2047
F0.5636363636363636
aF0.43636363636363634
aa(lp2048
F0.6762589928057554
aF0.3237410071942446
aa(lp2049
F0.6504854368932039
aF0.34951456310679613
aa(lp2050
F0.6621621621621622
aF0.33783783783783783
aa(lp2051
F0.8565737051792829
aF0.14342629482071714
aa(lp2052
F0.8098958333333334
aF0.19010416666666666
aa(lp2053
F0.5925925925925926
aF0.4074074074074074
aa(lp2054
F0.8475609756097561
aF0.1524390243902439
aa(lp2055
F0.8161764705882353
aF0.18382352941176472
aa(lp2056
F0.7575757575757576
aF0.24242424242424243
aa(lp2057
F0.72
aF0.28
aa(lp2058
F0.7911111111111111
aF0.2088888888888889
aa(lp2059
F0.6753246753246753
aF0.3246753246753247
aa(lp2060
F0.7341772151898734
aF0.26582278481012656
aa(lp2061
F0.8235294117647058
aF0.17647058823529413
aa(lp2062
F0.22727272727272727
aF0.7727272727272727
aa(lp2063
F0.5454545454545454
aF0.45454545454545453
aa(lp2064
F0.7808219178082192
aF0.2191780821917808
aa(lp2065
F0.8692307692307693
aF0.13076923076923078
aa(lp2066
F0.8529411764705882
aF0.14705882352941177
aa(lp2067
F0.8209876543209876
aF0.17901234567901234
aa(lp2068
F0.8947368421052632
aF0.10526315789473684
aa(lp2069
F0.8235294117647058
aF0.17647058823529413
aa(lp2070
F0.26851851851851855
aF0.7314814814814815
aa(lp2071
F0.911660777385159
aF0.08833922261484099
aa(lp2072
F0.7868217054263565
aF0.2131782945736434
aa(lp2073
F0.8977011494252873
aF0.10229885057471265
aa(lp2074
F0.8163265306122449
aF0.1836734693877551
aa(lp2075
F0.8409090909090909
aF0.1590909090909091
aa(lp2076
F0.8983050847457628
aF0.1016949152542373
aa(lp2077
F0.8319783197831978
aF0.16802168021680217
aa(lp2078
F0.8404907975460123
aF0.15950920245398773
aa(lp2079
F0.8295454545454546
aF0.17045454545454544
aa(lp2080
F0.8591352859135286
aF0.14086471408647142
aa(lp2081
F0.8360655737704918
aF0.16393442622950818
aa(lp2082
F0.5901639344262295
aF0.4098360655737705
aa(lp2083
F0.7159090909090909
aF0.2840909090909091
aa(lp2084
F0.7272727272727273
aF0.2727272727272727
aa(lp2085
F0.7704918032786885
aF0.22950819672131148
aa(lp2086
F0.6086956521739131
aF0.391304347826087
aa(lp2087
F0.9434697855750487
aF0.056530214424951264
aa(lp2088
F0.8532110091743119
aF0.14678899082568808
aa(lp2089
F0.22448979591836735
aF0.7755102040816326
aa(lp2090
F0.5384615384615384
aF0.46153846153846156
aa(lp2091
F0.6428571428571429
aF0.35714285714285715
aa(lp2092
F0.8125
aF0.1875
aa(lp2093
F0.8211920529801324
aF0.17880794701986755
aa(lp2094
F0.8923611111111112
aF0.1076388888888889
aa(lp2095
F0.6714285714285714
aF0.32857142857142857
aa(lp2096
F0.7272727272727273
aF0.2727272727272727
aa(lp2097
F0.665
aF0.335
aa(lp2098
F0.75
aF0.25
aa(lp2099
F0.8208955223880597
aF0.1791044776119403
aa(lp2100
F0.7844827586206896
aF0.21551724137931033
aa(lp2101
F0.8986486486486487
aF0.10135135135135136
aa(lp2102
F0.6973684210526315
aF0.3026315789473684
aa(lp2103
F0.3333333333333333
aF0.6666666666666666
aa(lp2104
F0.924
aF0.076
aa(lp2105
F0.5698924731182796
aF0.43010752688172044
aa(lp2106
F0.897196261682243
aF0.102803738317757
aa(lp2107
F0.6101694915254238
aF0.3898305084745763
aa(lp2108
F0.9085872576177285
aF0.09141274238227147
aa(lp2109
F0.6602316602316602
aF0.33976833976833976
aa(lp2110
F0.9224283305227656
aF0.0775716694772344
aa(lp2111
F0.5882352941176471
aF0.4117647058823529
aa(lp2112
F0.7696078431372549
aF0.23039215686274508
aa(lp2113
F0.5757575757575758
aF0.42424242424242425
aa(lp2114
F0.6571428571428571
aF0.34285714285714286
aa(lp2115
F0.5205479452054794
aF0.4794520547945205
aa(lp2116
F0.8148936170212766
aF0.1851063829787234
aa(lp2117
F0.39436619718309857
aF0.6056338028169014
aa(lp2118
F0.7924528301886793
aF0.20754716981132076
aa(lp2119
F0.9146341463414634
aF0.08536585365853659
aa(lp2120
F0.6918918918918919
aF0.3081081081081081
aa(lp2121
F0.7297297297297297
aF0.2702702702702703
aa(lp2122
F0.7716535433070866
aF0.2283464566929134
aa(lp2123
F0.7105263157894737
aF0.2894736842105263
aa(lp2124
F0.8299319727891157
aF0.17006802721088435
aa(lp2125
F0.6129032258064516
aF0.3870967741935484
aa(lp2126
F0.6483516483516484
aF0.3516483516483517
aa(lp2127
F0.6388888888888888
aF0.3611111111111111
aa(lp2128
F0.44525547445255476
aF0.5547445255474452
aa(lp2129
F0.4315068493150685
aF0.5684931506849316
aa(lp2130
F0.6538461538461539
aF0.34615384615384615
aa(lp2131
F0.7808219178082192
aF0.2191780821917808
aa(lp2132
F0.8535211267605634
aF0.14647887323943662
aa(lp2133
F0.788235294117647
aF0.21176470588235294
aa(lp2134
F0.7211538461538461
aF0.27884615384615385
aa(lp2135
F0.8125
aF0.1875
aa(lp2136
F0.7083333333333334
aF0.2916666666666667
aa(lp2137
F0.8950276243093923
aF0.10497237569060773
aa(lp2138
F0.8325358851674641
aF0.1674641148325359
aa(lp2139
F0.7875
aF0.2125
aa(lp2140
F0.6804123711340206
aF0.31958762886597936
aa(lp2141
F0.8870192307692307
aF0.11298076923076923
aa(lp2142
F0.8376068376068376
aF0.1623931623931624
aa(lp2143
F0.6935483870967742
aF0.3064516129032258
aa(lp2144
F0.6666666666666666
aF0.3333333333333333
aa(lp2145
F0.7848101265822784
aF0.21518987341772153
aa(lp2146
F0.8028673835125448
aF0.1971326164874552
aa(lp2147
F0.5583333333333333
aF0.44166666666666665
aa(lp2148
F0.5747126436781609
aF0.42528735632183906
aa(lp2149
F0.852760736196319
aF0.147239263803681
aa(lp2150
F0.69
aF0.31
aa(lp2151
F0.7586206896551724
aF0.2413793103448276
aa(lp2152
F0.7172413793103448
aF0.2827586206896552
aa(lp2153
F0.8040540540540541
aF0.19594594594594594
aa(lp2154
F0.6962962962962963
aF0.3037037037037037
aa(lp2155
F0.85
aF0.15
aa(lp2156
F0.7156862745098039
aF0.28431372549019607
aa(lp2157
F0.8594594594594595
aF0.14054054054054055
aa(lp2158
F0.7536231884057971
aF0.2463768115942029
aa(lp2159
F0.7567567567567568
aF0.24324324324324326
aa(lp2160
F0.7564102564102564
aF0.24358974358974358
aa(lp2161
F0.8425925925925926
aF0.1574074074074074
aa(lp2162
F0.7314285714285714
aF0.26857142857142857
aa(lp2163
F0.6375
aF0.3625
aa(lp2164
F0.6538461538461539
aF0.34615384615384615
aa(lp2165
F0.8592814371257484
aF0.1407185628742515
aa(lp2166
F0.6993006993006993
aF0.3006993006993007
aa(lp2167
F0.8952380952380953
aF0.10476190476190476
aa(lp2168
F0.6296296296296297
aF0.37037037037037035
aa(lp2169
F0.7142857142857143
aF0.2857142857142857
aa(lp2170
F0.5405405405405406
aF0.4594594594594595
aa(lp2171
F0.9225352112676056
aF0.07746478873239436
aa(lp2172
F0.5524861878453039
aF0.44751381215469616
aa(lp2173
F0.6842105263157895
aF0.3157894736842105
aa(lp2174
F0.8888888888888888
aF0.1111111111111111
aa(lp2175
F0.6506024096385542
aF0.3493975903614458
aa(lp2176
F0.592
aF0.408
aa(lp2177
F0.9122807017543859
aF0.08771929824561403
aa(lp2178
F0.609375
aF0.390625
aa(lp2179
F0.6290322580645161
aF0.3709677419354839
aa(lp2180
F0.7384615384615385
aF0.26153846153846155
aa(lp2181
F0.7638888888888888
aF0.2361111111111111
aa(lp2182
F0.8691588785046729
aF0.1308411214953271
aa(lp2183
F0.6341463414634146
aF0.36585365853658536
aa(lp2184
F0.8823529411764706
aF0.11764705882352941
aa(lp2185
F0.8059701492537313
aF0.19402985074626866
aa(lp2186
F0.896969696969697
aF0.10303030303030303
aa(lp2187
F0.8087431693989071
aF0.1912568306010929
aa(lp2188
F0.675
aF0.325
aa(lp2189
F0.8032786885245902
aF0.19672131147540983
aa(lp2190
F0.7678571428571429
aF0.23214285714285715
aa(lp2191
F0.5966386554621849
aF0.40336134453781514
aa(lp2192
F0.6867469879518072
aF0.3132530120481928
aa(lp2193
F0.8225806451612904
aF0.1774193548387097
aa(lp2194
F0.7653061224489796
aF0.23469387755102042
aa(lp2195
F0.4111111111111111
aF0.5888888888888889
aa(lp2196
F0.7575757575757576
aF0.24242424242424243
aa(lp2197
F0.8601036269430051
aF0.13989637305699482
aa(lp2198
F0.8307692307692308
aF0.16923076923076924
aa(lp2199
F0.8461538461538461
aF0.15384615384615385
aa(lp2200
F0.6623376623376623
aF0.33766233766233766
aa(lp2201
F0.7697841726618705
aF0.2302158273381295
aa(lp2202
F0.8962655601659751
aF0.1037344398340249
aa(lp2203
F0.7109375
aF0.2890625
aa(lp2204
F0.8484848484848485
aF0.15151515151515152
aa(lp2205
F0.7257142857142858
aF0.2742857142857143
aa(lp2206
F0.6122448979591837
aF0.3877551020408163
aa(lp2207
F0.8241758241758241
aF0.17582417582417584
aa(lp2208
F0.6666666666666666
aF0.3333333333333333
aa(lp2209
F0.65
aF0.35
aa(lp2210
F0.8518518518518519
aF0.14814814814814814
aa(lp2211
F0.8452380952380952
aF0.15476190476190477
aa(lp2212
F0.8235294117647058
aF0.17647058823529413
aa(lp2213
F0.8712871287128713
aF0.12871287128712872
aa(lp2214
F0.6666666666666666
aF0.3333333333333333
aa(lp2215
F0.8936170212765957
aF0.10638297872340426
aa(lp2216
F0.9177215189873418
aF0.08227848101265822
aa(lp2217
F0.4
aF0.6
aa(lp2218
F0.7741935483870968
aF0.22580645161290322
aa(lp2219
F0.8853503184713376
aF0.11464968152866242
aa(lp2220
F0.8323353293413174
aF0.16766467065868262
aa(lp2221
F0.8454545454545455
aF0.15454545454545454
aa(lp2222
F0.8275862068965517
aF0.1724137931034483
aa(lp2223
F0.6739130434782609
aF0.32608695652173914
aa(lp2224
F0.7261904761904762
aF0.27380952380952384
aa(lp2225
F0.8571428571428571
aF0.14285714285714285
aa(lp2226
F0.855
aF0.145
aa(lp2227
F0.8366533864541833
aF0.16334661354581673
aa(lp2228
F0.8048780487804879
aF0.1951219512195122
aa(lp2229
F0.8768115942028986
aF0.12318840579710146
aa(lp2230
F0.75
aF0.25
aa(lp2231
F0.6764705882352942
aF0.3235294117647059
aa(lp2232
F0.7878787878787878
aF0.21212121212121213
aa(lp2233
F0.8243243243243243
aF0.17567567567567569
aa(lp2234
F0.8493150684931506
aF0.1506849315068493
aa(lp2235
F0.8382352941176471
aF0.16176470588235295
aa(lp2236
F0.7368421052631579
aF0.2631578947368421
aa(lp2237
F0.7391304347826086
aF0.2608695652173913
aa(lp2238
F0.8544303797468354
aF0.14556962025316456
aa(lp2239
F0.9007633587786259
aF0.09923664122137404
aa(lp2240
F0.8208955223880597
aF0.1791044776119403
aa(lp2241
F0.84375
aF0.15625
aa(lp2242
F0.5652173913043478
aF0.43478260869565216
aa(lp2243
F0.8653846153846154
aF0.1346153846153846
aa(lp2244
F0.4186046511627907
aF0.5813953488372093
aa(lp2245
F0.7674418604651163
aF0.23255813953488372
aa(lp2246
F0.8452380952380952
aF0.15476190476190477
aa(lp2247
F0.9459459459459459
aF0.05405405405405406
aa(lp2248
F0.8840579710144928
aF0.11594202898550725
aa(lp2249
F0.6870748299319728
aF0.3129251700680272
aa(lp2250
F0.7857142857142857
aF0.21428571428571427
aa(lp2251
F0.7619047619047619
aF0.23809523809523808
aa(lp2252
F0.8972602739726028
aF0.10273972602739725
aa(lp2253
F0.8072289156626506
aF0.1927710843373494
aa(lp2254
F0.8372093023255814
aF0.16279069767441862
aa(lp2255
F0.7981651376146789
aF0.2018348623853211
aa(lp2256
F0.8938053097345132
aF0.10619469026548672
aa(lp2257
F0.7096774193548387
aF0.2903225806451613
aa(lp2258
F0.8195488721804511
aF0.18045112781954886
aa(lp2259
F0.8642857142857143
aF0.1357142857142857
aa(lp2260
F0.7894736842105263
aF0.21052631578947367
aa(lp2261
F0.5106382978723404
aF0.48936170212765956
aa(lp2262
F0.8493150684931506
aF0.1506849315068493
aa(lp2263
F0.788235294117647
aF0.21176470588235294
aa(lp2264
F0.7710843373493976
aF0.2289156626506024
aa(lp2265
F0.7272727272727273
aF0.2727272727272727
aa(lp2266
F0.8
aF0.2
aa(lp2267
F0.6176470588235294
aF0.38235294117647056
aa(lp2268
F0.6507936507936508
aF0.3492063492063492
aa(lp2269
F0.9679547596606974
aF0.03204524033930255
aa(lp2270
F0.8793103448275862
aF0.1206896551724138
aa(lp2271
F0.8269230769230769
aF0.17307692307692307
aa(lp2272
F0.891566265060241
aF0.10843373493975904
aa(lp2273
F0.7912087912087912
aF0.2087912087912088
aa(lp2274
F0.3870967741935484
aF0.6129032258064516
aa(lp2275
F0.5373134328358209
aF0.4626865671641791
aa(lp2276
F0.7428571428571429
aF0.2571428571428571
aa(lp2277
F0.8611111111111112
aF0.1388888888888889
aa(lp2278
F0.8923076923076924
aF0.1076923076923077
aa(lp2279
F0.9295154185022027
aF0.07048458149779736
aa(lp2280
F0.7936507936507936
aF0.20634920634920634
aa(lp2281
F0.8878504672897196
aF0.11214953271028037
aa(lp2282
F0.8146341463414634
aF0.18536585365853658
aa(lp2283
F0.7207207207207207
aF0.27927927927927926
aa(lp2284
F0.48484848484848486
aF0.5151515151515151
aa(lp2285
F0.7397260273972602
aF0.2602739726027397
aa(lp2286
F0.8883720930232558
aF0.11162790697674418
aa(lp2287
F0.5760869565217391
aF0.42391304347826086
aa(lp2288
F0.8048780487804879
aF0.1951219512195122
aa(lp2289
F0.7411764705882353
aF0.25882352941176473
aa(lp2290
F0.6338028169014085
aF0.36619718309859156
aa(lp2291
F0.9420289855072463
aF0.057971014492753624
aa(lp2292
F0.8619402985074627
aF0.13805970149253732
aa(lp2293
F0.8610271903323263
aF0.13897280966767372
aa(lp2294
F0.8860759493670886
aF0.11392405063291139
aa(lp2295
F0.8633093525179856
aF0.1366906474820144
aa(lp2296
F0.8580246913580247
aF0.1419753086419753
aa(lp2297
F0.782608695652174
aF0.21739130434782608
aa(lp2298
F0.8768115942028986
aF0.12318840579710146
aa(lp2299
F0.7307692307692307
aF0.2692307692307692
aa(lp2300
F0.6777777777777778
aF0.32222222222222224
aa(lp2301
F0.64
aF0.36
aa(lp2302
F0.9041916167664671
aF0.09580838323353294
aa(lp2303
F0.9203539823008849
aF0.07964601769911504
aa(lp2304
F0.711864406779661
aF0.288135593220339
aa(lp2305
F0.7537688442211056
aF0.24623115577889448
aa(lp2306
F0.6444444444444445
aF0.35555555555555557
aa(lp2307
F0.828125
aF0.171875
aa(lp2308
F0.7647058823529411
aF0.23529411764705882
aa(lp2309
F0.7428571428571429
aF0.2571428571428571
aa(lp2310
F0.7
aF0.3
aa(lp2311
F0.941563055062167
aF0.05843694493783304
aa(lp2312
F0.7090909090909091
aF0.2909090909090909
aa(lp2313
F0.8483965014577259
aF0.15160349854227406
aa(lp2314
F0.7083333333333334
aF0.2916666666666667
aa(lp2315
F0.7906976744186046
aF0.20930232558139536
aa(lp2316
F0.8636363636363636
aF0.13636363636363635
aa(lp2317
F0.7432432432432432
aF0.25675675675675674
aa(lp2318
F0.6326530612244898
aF0.3673469387755102
aa(lp2319
F0.7450980392156863
aF0.2549019607843137
aa(lp2320
F0.8571428571428571
aF0.14285714285714285
aa(lp2321
F0.6825396825396826
aF0.31746031746031744
aa(lp2322
F0.7686567164179104
aF0.23134328358208955
aa(lp2323
F0.75
aF0.25
aa(lp2324
F0.66
aF0.34
aa(lp2325
F0.552
aF0.448
aa(lp2326
F0.762589928057554
aF0.23741007194244604
aa(lp2327
F0.5476190476190477
aF0.4523809523809524
aa(lp2328
F0.8035714285714286
aF0.19642857142857142
aa(lp2329
F0.704225352112676
aF0.29577464788732394
aa(lp2330
F0.8070175438596491
aF0.19298245614035087
aa(lp2331
F0.8253968253968254
aF0.1746031746031746
aa(lp2332
F0.8714285714285714
aF0.12857142857142856
aa(lp2333
F0.9310344827586207
aF0.06896551724137931
aa(lp2334
F0.83
aF0.17
aa(lp2335
F0.8779232927970065
aF0.12207670720299345
aa(lp2336
F0.9367816091954023
aF0.06321839080459771
aa(lp2337
F0.36
aF0.64
aa(lp2338
F0.6885245901639344
aF0.3114754098360656
aa(lp2339
F0.8347826086956521
aF0.16521739130434782
aa(lp2340
F0.7555555555555555
aF0.24444444444444444
aa(lp2341
F0.7078651685393258
aF0.29213483146067415
aa(lp2342
F0.6612903225806451
aF0.3387096774193548
aa(lp2343
F0.5
aF0.5
aa(lp2344
F0.6509433962264151
aF0.3490566037735849
aa(lp2345
F0.8455882352941176
aF0.15441176470588236
aa(lp2346
F0.907563025210084
aF0.09243697478991597
aa(lp2347
F0.8391608391608392
aF0.16083916083916083
aa(lp2348
F0.8018867924528302
aF0.19811320754716982
aa(lp2349
F0.6612903225806451
aF0.3387096774193548
aa(lp2350
F0.7142857142857143
aF0.2857142857142857
aa(lp2351
F0.7633587786259542
aF0.2366412213740458
aa(lp2352
F0.7863247863247863
aF0.21367521367521367
aa(lp2353
F0.7397260273972602
aF0.2602739726027397
aa(lp2354
F0.9067357512953368
aF0.09326424870466321
aa(lp2355
F0.7894736842105263
aF0.21052631578947367
aa(lp2356
F0.8629032258064516
aF0.13709677419354838
aa(lp2357
F0.6865671641791045
aF0.31343283582089554
aa(lp2358
F0.8
aF0.2
aa(lp2359
F0.6153846153846154
aF0.38461538461538464
aa(lp2360
F0.8762221759933431
aF0.12377782400665696
aa(lp2361
F0.7647058823529411
aF0.23529411764705882
aa(lp2362
F0.47368421052631576
aF0.5263157894736842
aa(lp2363
F0.6666666666666666
aF0.3333333333333333
aa(lp2364
F0.8032786885245902
aF0.19672131147540983
aa(lp2365
F0.8454545454545455
aF0.15454545454545454
aa(lp2366
F0.6964285714285714
aF0.30357142857142855
aa(lp2367
F0.6483516483516484
aF0.3516483516483517
aa(lp2368
F0.7065868263473054
aF0.2934131736526946
aa(lp2369
F0.8676470588235294
aF0.1323529411764706
aa(lp2370
F0.7407407407407407
aF0.25925925925925924
aa(lp2371
F0.7311827956989247
aF0.26881720430107525
aa(lp2372
F0.58
aF0.42
aa(lp2373
F0.8769230769230769
aF0.12307692307692308
aa(lp2374
F0.8426966292134831
aF0.15730337078651685
aa(lp2375
F0.8461538461538461
aF0.15384615384615385
aa(lp2376
F0.5979381443298969
aF0.4020618556701031
aa(lp2377
F0.8092105263157895
aF0.19078947368421054
aa(lp2378
F0.5625
aF0.4375
aa(lp2379
F0.8767123287671232
aF0.1232876712328767
aa(lp2380
F0.8057142857142857
aF0.19428571428571428
aa(lp2381
F0.7606837606837606
aF0.23931623931623933
aa(lp2382
F0.7571428571428571
aF0.24285714285714285
aa(lp2383
F0.793939393939394
aF0.20606060606060606
aa(lp2384
F0.7441860465116279
aF0.2558139534883721
aa(lp2385
F0.8181818181818182
aF0.18181818181818182
aa(lp2386
F0.599009900990099
aF0.400990099009901
aa(lp2387
F0.8473684210526315
aF0.15263157894736842
aa(lp2388
F0.8484848484848485
aF0.15151515151515152
aa(lp2389
F0.9295618413754853
aF0.0704381586245147
aa(lp2390
F0.875
aF0.125
aa(lp2391
F0.4473684210526316
aF0.5526315789473685
aa(lp2392
F0.7340425531914894
aF0.26595744680851063
aa(lp2393
F0.8590604026845637
aF0.14093959731543623
aa(lp2394
F0.810126582278481
aF0.189873417721519
aa(lp2395
F0.8315789473684211
aF0.16842105263157894
aa(lp2396
F0.5714285714285714
aF0.42857142857142855
aa(lp2397
F0.6578947368421053
aF0.34210526315789475
aa(lp2398
F0.7647058823529411
aF0.23529411764705882
aa(lp2399
F0.7610619469026548
aF0.23893805309734514
aa(lp2400
F0.5714285714285714
aF0.42857142857142855
aa(lp2401
F0.7222222222222222
aF0.2777777777777778
aa(lp2402
F0.8428571428571429
aF0.15714285714285714
aa(lp2403
F0.5161290322580645
aF0.4838709677419355
aa(lp2404
F0.8620689655172413
aF0.13793103448275862
aa(lp2405
F0.7815126050420168
aF0.2184873949579832
aa(lp2406
F0.9392712550607287
aF0.06072874493927125
aa(lp2407
F0.7607361963190185
aF0.2392638036809816
aa(lp2408
F0.863905325443787
aF0.13609467455621302
aa(lp2409
F0.6944444444444444
aF0.3055555555555556
aa(lp2410
F0.75
aF0.25
aa(lp2411
F0.8108108108108109
aF0.1891891891891892
aa(lp2412
F0.7373737373737373
aF0.26262626262626265
aa(lp2413
F0.7846153846153846
aF0.2153846153846154
aa(lp2414
F0.6956521739130435
aF0.30434782608695654
aa(lp2415
F0.5405405405405406
aF0.4594594594594595
aa(lp2416
F0.7953216374269005
aF0.2046783625730994
aa(lp2417
F0.6190476190476191
aF0.38095238095238093
aa(lp2418
F0.9156626506024096
aF0.08433734939759036
aa(lp2419
F0.9056603773584906
aF0.09433962264150944
aa(lp2420
F0.7710843373493976
aF0.2289156626506024
aa(lp2421
F0.9609856262833676
aF0.039014373716632446
aa(lp2422
F0.6824324324324325
aF0.31756756756756754
aa(lp2423
F0.7555555555555555
aF0.24444444444444444
aa(lp2424
F0.8153846153846154
aF0.18461538461538463
aa(lp2425
F0.7777777777777778
aF0.2222222222222222
aa(lp2426
F0.7441860465116279
aF0.2558139534883721
aa(lp2427
F0.8285714285714286
aF0.17142857142857143
aa(lp2428
F0.5714285714285714
aF0.42857142857142855
aa(lp2429
F0.42
aF0.58
aa(lp2430
F0.7924528301886793
aF0.20754716981132076
aa(lp2431
F0.78125
aF0.21875
aa(lp2432
F0.775
aF0.225
aa(lp2433
F0.671875
aF0.328125
aa(lp2434
F0.7094017094017094
aF0.2905982905982906
aa(lp2435
F0.6060606060606061
aF0.3939393939393939
aa(lp2436
F0.8352941176470589
aF0.16470588235294117
aa(lp2437
F0.5111111111111111
aF0.4888888888888889
aa(lp2438
F0.9266666666666666
aF0.07333333333333333
aa(lp2439
F0.5538461538461539
aF0.4461538461538462
aa(lp2440
F0.8554216867469879
aF0.14457831325301204
aa(lp2441
F0.868421052631579
aF0.13157894736842105
aa(lp2442
F0.7741935483870968
aF0.22580645161290322
aa(lp2443
F0.8888888888888888
aF0.1111111111111111
aa(lp2444
F0.84
aF0.16
aa(lp2445
F0.6808510638297872
aF0.3191489361702128
aa(lp2446
F0.7647058823529411
aF0.23529411764705882
aa(lp2447
F0.6071428571428571
aF0.39285714285714285
aa(lp2448
F0.875
aF0.125
aa(lp2449
F0.7005649717514124
aF0.2994350282485876
aa(lp2450
F0.6896551724137931
aF0.3103448275862069
aa(lp2451
F0.5555555555555556
aF0.4444444444444444
aa(lp2452
F0.9611190137505927
aF0.0388809862494073
aa(lp2453
F0.7956989247311828
aF0.20430107526881722
aa(lp2454
F0.7307692307692307
aF0.2692307692307692
aa(lp2455
F0.7945945945945946
aF0.20540540540540542
aa(lp2456
F0.8405172413793104
aF0.15948275862068967
aa(lp2457
F0.8348623853211009
aF0.1651376146788991
aa(lp2458
F0.5645161290322581
aF0.43548387096774194
aa(lp2459
F0.8608247422680413
aF0.13917525773195877
aa(lp2460
F0.7383177570093458
aF0.2616822429906542
aa(lp2461
F0.5689655172413793
aF0.43103448275862066
aa(lp2462
F0.8235294117647058
aF0.17647058823529413
aa(lp2463
F0.625
aF0.375
aa(lp2464
F0.8198757763975155
aF0.18012422360248448
aa(lp2465
F0.8921389396709324
aF0.10786106032906764
aa(lp2466
F0.7801724137931034
aF0.21982758620689655
aa(lp2467
F0.8055555555555556
aF0.19444444444444445
aa(lp2468
F0.7878787878787878
aF0.21212121212121213
aa(lp2469
F0.8344283837056504
aF0.16557161629434955
aa(lp2470
F0.7053571428571429
aF0.29464285714285715
aa(lp2471
F0.74
aF0.26
aa(lp2472
F0.8364779874213837
aF0.16352201257861634
aa(lp2473
F0.9101796407185628
aF0.08982035928143713
aa(lp2474
F0.8869565217391304
aF0.11304347826086956
aa(lp2475
F0.6940639269406392
aF0.3059360730593607
aa(lp2476
F0.6140350877192983
aF0.38596491228070173
aa(lp2477
F0.7323943661971831
aF0.2676056338028169
aa(lp2478
F0.6533333333333333
aF0.3466666666666667
aa(lp2479
F0.646551724137931
aF0.35344827586206895
aa(lp2480
F0.620253164556962
aF0.379746835443038
aa(lp2481
F0.8666666666666667
aF0.13333333333333333
aa(lp2482
F0.7964601769911505
aF0.20353982300884957
aa(lp2483
F0.8252427184466019
aF0.17475728155339806
aa(lp2484
F0.7976190476190477
aF0.20238095238095238
aa(lp2485
F0.85
aF0.15
aa(lp2486
F0.7659574468085106
aF0.23404255319148937
aa(lp2487
F0.9182389937106918
aF0.08176100628930817
aa(lp2488
F0.71875
aF0.28125
aa(lp2489
F0.8292682926829268
aF0.17073170731707318
aa(lp2490
F0.5795454545454546
aF0.42045454545454547
aa(lp2491
F0.75
aF0.25
aa(lp2492
F0.7547169811320755
aF0.24528301886792453
aa(lp2493
F0.7272727272727273
aF0.2727272727272727
aa(lp2494
F0.8507462686567164
aF0.14925373134328357
aa(lp2495
F0.7916666666666666
aF0.20833333333333334
aa(lp2496
F0.6621621621621622
aF0.33783783783783783
aa(lp2497
F0.8990825688073395
aF0.10091743119266056
aa(lp2498
F0.85
aF0.15
aa(lp2499
F0.7912087912087912
aF0.2087912087912088
aa(lp2500
F0.8767123287671232
aF0.1232876712328767
aa(lp2501
F0.83
aF0.17
aa(lp2502
F0.71875
aF0.28125
aa(lp2503
F0.6326530612244898
aF0.3673469387755102
aa(lp2504
F0.8976744186046511
aF0.10232558139534884
aa(lp2505
F0.5625
aF0.4375
aa(lp2506
F0.8411764705882353
aF0.1588235294117647
aa(lp2507
F0.5092592592592593
aF0.49074074074074076
aa(lp2508
F0.9344262295081968
aF0.06557377049180328
aa(lp2509
F0.7777777777777778
aF0.2222222222222222
aa(lp2510
F0.6779661016949152
aF0.3220338983050847
aa(lp2511
F0.7666666666666667
aF0.23333333333333334
aa(lp2512
F0.5263157894736842
aF0.47368421052631576
aa(lp2513
F0.6690140845070423
aF0.33098591549295775
aa(lp2514
F0.7536231884057971
aF0.2463768115942029
aa(lp2515
F0.875
aF0.125
aa(lp2516
F0.8837209302325582
aF0.11627906976744186
aa(lp2517
F0.875
aF0.125
aa(lp2518
F0.8478260869565217
aF0.15217391304347827
aa(lp2519
F0.3838383838383838
aF0.6161616161616161
aa(lp2520
F0.8571428571428571
aF0.14285714285714285
aa(lp2521
F0.776
aF0.224
aa(lp2522
F0.8085106382978723
aF0.19148936170212766
aa(lp2523
F0.8592592592592593
aF0.14074074074074075
aa(lp2524
F0.53125
aF0.46875
aa(lp2525
F0.5857142857142857
aF0.4142857142857143
aa(lp2526
F0.8652482269503546
aF0.1347517730496454
aa(lp2527
F0.7702702702702703
aF0.22972972972972974
aa(lp2528
F0.8
aF0.2
aa(lp2529
F0.7906976744186046
aF0.20930232558139536
aa(lp2530
F0.43333333333333335
aF0.5666666666666667
aa(lp2531
F0.5952380952380952
aF0.40476190476190477
aa(lp2532
F0.651685393258427
aF0.34831460674157305
aa(lp2533
F0.7906976744186046
aF0.20930232558139536
aa(lp2534
F0.6712328767123288
aF0.3287671232876712
aa(lp2535
F0.7288135593220338
aF0.2711864406779661
aa(lp2536
F0.5352112676056338
aF0.4647887323943662
aa(lp2537
F0.8305084745762712
aF0.1694915254237288
aa(lp2538
F0.7818181818181819
aF0.21818181818181817
aa(lp2539
F0.8421052631578947
aF0.15789473684210525
aa(lp2540
F0.6086956521739131
aF0.391304347826087
aa(lp2541
F0.7912087912087912
aF0.2087912087912088
aa(lp2542
F0.806
aF0.194
aa(lp2543
F0.8235294117647058
aF0.17647058823529413
aa(lp2544
F0.9003690036900369
aF0.0996309963099631
aa(lp2545
F0.847457627118644
aF0.15254237288135594
aa(lp2546
F0.7093023255813954
aF0.29069767441860467
aa(lp2547
F0.8
aF0.2
aa(lp2548
F0.4166666666666667
aF0.5833333333333334
aa(lp2549
F0.5365853658536586
aF0.4634146341463415
aa(lp2550
F0.8260869565217391
aF0.17391304347826086
aa(lp2551
F0.7101449275362319
aF0.2898550724637681
aa(lp2552
F0.8785046728971962
aF0.12149532710280374
aa(lp2553
F0.9019607843137255
aF0.09803921568627451
aa(lp2554
F0.375
aF0.625
aa(lp2555
F0.8461538461538461
aF0.15384615384615385
aa(lp2556
F0.6466666666666666
aF0.35333333333333333
aa(lp2557
F0.8342857142857143
aF0.1657142857142857
aa(lp2558
F0.78
aF0.22
aa(lp2559
F0.8292682926829268
aF0.17073170731707318
aa(lp2560
F0.8152610441767069
aF0.18473895582329317
aa(lp2561
F0.8214285714285714
aF0.17857142857142858
aa(lp2562
F0.9827586206896551
aF0.017241379310344827
aa(lp2563
F0.7682926829268293
aF0.23170731707317074
aa(lp2564
F0.7171717171717171
aF0.2828282828282828
aa(lp2565
F0.8450704225352113
aF0.15492957746478872
aa(lp2566
F0.8494623655913979
aF0.15053763440860216
aa(lp2567
F0.7192982456140351
aF0.2807017543859649
aa(lp2568
F0.7610619469026548
aF0.23893805309734514
aa(lp2569
F0.8888888888888888
aF0.1111111111111111
aa(lp2570
F0.684931506849315
aF0.3150684931506849
aa(lp2571
F0.8905109489051095
aF0.10948905109489052
aa(lp2572
F0.7878787878787878
aF0.21212121212121213
aa(lp2573
F0.578125
aF0.421875
aa(lp2574
F0.6911764705882353
aF0.3088235294117647
aa(lp2575
F0.8478260869565217
aF0.15217391304347827
aa(lp2576
F0.8088235294117647
aF0.19117647058823528
aa(lp2577
F0.9317269076305221
aF0.06827309236947791
aa(lp2578
F0.8783783783783784
aF0.12162162162162163
aa(lp2579
F0.875
aF0.125
aa(lp2580
F0.47368421052631576
aF0.5263157894736842
aa(lp2581
F0.6818181818181818
aF0.3181818181818182
aa(lp2582
F0.8421052631578947
aF0.15789473684210525
aa(lp2583
F0.78125
aF0.21875
aa(lp2584
F0.8241758241758241
aF0.17582417582417584
aa(lp2585
F0.6451612903225806
aF0.3548387096774194
aa(lp2586
F0.8981481481481481
aF0.10185185185185185
aa(lp2587
F0.8736842105263158
aF0.12631578947368421
aa(lp2588
F0.6341463414634146
aF0.36585365853658536
aa(lp2589
F0.6833333333333333
aF0.31666666666666665
aa(lp2590
F0.8602941176470589
aF0.13970588235294118
aa(lp2591
F0.673469387755102
aF0.32653061224489793
aa(lp2592
F0.6226415094339622
aF0.37735849056603776
aa(lp2593
F0.5294117647058824
aF0.47058823529411764
aa(lp2594
F0.7
aF0.3
aa(lp2595
F0.6546184738955824
aF0.3453815261044177
aa(lp2596
F0.7647058823529411
aF0.23529411764705882
aa(lp2597
F0.5581395348837209
aF0.4418604651162791
aa(lp2598
F0.909952606635071
aF0.09004739336492891
aa(lp2599
F0.9038461538461539
aF0.09615384615384616
aa(lp2600
F0.7719298245614035
aF0.22807017543859648
aa(lp2601
F0.7333333333333333
aF0.26666666666666666
aa(lp2602
F0.8095238095238095
aF0.19047619047619047
aa(lp2603
F0.8321678321678322
aF0.16783216783216784
aa(lp2604
F0.6901408450704225
aF0.30985915492957744
aa(lp2605
F0.6213592233009708
aF0.3786407766990291
aa(lp2606
F0.6666666666666666
aF0.3333333333333333
aa(lp2607
F0.8190954773869347
aF0.18090452261306533
aa(lp2608
F0.6521739130434783
aF0.34782608695652173
aa(lp2609
F0.7538461538461538
aF0.24615384615384617
aa(lp2610
F0.8368200836820083
aF0.16317991631799164
aa(lp2611
F0.7552447552447552
aF0.24475524475524477
aa(lp2612
F0.46
aF0.54
aa(lp2613
F0.8366336633663366
aF0.16336633663366337
aa(lp2614
F0.7936507936507936
aF0.20634920634920634
aa(lp2615
F0.9262672811059908
aF0.07373271889400922
aa(lp2616
F0.7674418604651163
aF0.23255813953488372
aa(lp2617
F0.7117117117117117
aF0.2882882882882883
aa(lp2618
F0.803921568627451
aF0.19607843137254902
aa(lp2619
F0.6615384615384615
aF0.3384615384615385
aa(lp2620
F0.9051724137931034
aF0.09482758620689655
aa(lp2621
F0.8492063492063492
aF0.15079365079365079
aa(lp2622
F0.851063829787234
aF0.14893617021276595
aa(lp2623
F0.7291666666666666
aF0.2708333333333333
aa(lp2624
F0.9623279401110842
aF0.03767205988891572
aa(lp2625
F0.78
aF0.22
aa(lp2626
F0.7777777777777778
aF0.2222222222222222
aa(lp2627
F0.6229508196721312
aF0.3770491803278688
aa(lp2628
F0.8165137614678899
aF0.1834862385321101
aa(lp2629
F0.6052631578947368
aF0.39473684210526316
aa(lp2630
F0.75
aF0.25
aa(lp2631
F0.8
aF0.2
aa(lp2632
F0.5753424657534246
aF0.4246575342465753
aa(lp2633
F0.8761904761904762
aF0.12380952380952381
aa(lp2634
F0.9206349206349206
aF0.07936507936507936
aa(lp2635
F0.873015873015873
aF0.12698412698412698
aa(lp2636
F0.8205128205128205
aF0.1794871794871795
aa(lp2637
F0.7029702970297029
aF0.297029702970297
aa(lp2638
F0.7410714285714286
aF0.25892857142857145
aa(lp2639
F0.79
aF0.21
aa(lp2640
F0.8333333333333334
aF0.16666666666666666
aa(lp2641
F0.6052631578947368
aF0.39473684210526316
aa(lp2642
F0.7032967032967034
aF0.2967032967032967
aa(lp2643
F0.8767123287671232
aF0.1232876712328767
aa(lp2644
F0.8916666666666667
aF0.10833333333333334
aa(lp2645
F0.8561151079136691
aF0.14388489208633093
aa(lp2646
F0.75
aF0.25
aa(lp2647
F0.8805970149253731
aF0.11940298507462686
aa(lp2648
F0.75
aF0.25
aa(lp2649
F0.6257309941520468
aF0.3742690058479532
aa(lp2650
F0.6538461538461539
aF0.34615384615384615
aa(lp2651
F0.38
aF0.62
aa(lp2652
F0.8529411764705882
aF0.14705882352941177
aa(lp2653
F0.8251748251748252
aF0.17482517482517482
aa(lp2654
F0.8189655172413793
aF0.1810344827586207
aa(lp2655
F0.8074866310160428
aF0.1925133689839572
aa(lp2656
F0.9162011173184358
aF0.08379888268156424
aa(lp2657
F0.8636363636363636
aF0.13636363636363635
aa(lp2658
F0.7133757961783439
aF0.28662420382165604
aa(lp2659
F0.7088607594936709
aF0.2911392405063291
aa(lp2660
F0.8031914893617021
aF0.19680851063829788
aa(lp2661
F0.8666666666666667
aF0.13333333333333333
aa(lp2662
F0.8135593220338984
aF0.1864406779661017
aa(lp2663
F0.7586206896551724
aF0.2413793103448276
aa(lp2664
F0.8824427480916031
aF0.11755725190839694
aa(lp2665
F0.8785046728971962
aF0.12149532710280374
aa(lp2666
F0.725
aF0.275
aa(lp2667
F0.8470588235294118
aF0.15294117647058825
aa(lp2668
F0.609375
aF0.390625
aa(lp2669
F0.6938775510204082
aF0.30612244897959184
aa(lp2670
F0.8647450110864745
aF0.1352549889135255
aa(lp2671
F0.8854166666666666
aF0.11458333333333333
aa(lp2672
F0.9445277361319341
aF0.05547226386806597
aa(lp2673
F0.8181818181818182
aF0.18181818181818182
aa(lp2674
F0.8688524590163934
aF0.13114754098360656
aa(lp2675
F0.8865248226950354
aF0.11347517730496454
aa(lp2676
F0.84472049689441
aF0.15527950310559005
aa(lp2677
F0.8666666666666667
aF0.13333333333333333
aa(lp2678
F0.732824427480916
aF0.26717557251908397
aa(lp2679
F0.675
aF0.325
aa(lp2680
F0.825
aF0.175
aa(lp2681
F0.6129032258064516
aF0.3870967741935484
aa(lp2682
F0.6851851851851852
aF0.3148148148148148
aa(lp2683
F0.8220064724919094
aF0.1779935275080906
aa(lp2684
F0.7966101694915254
aF0.2033898305084746
aa(lp2685
F0.6296296296296297
aF0.37037037037037035
aa(lp2686
F0.9127906976744186
aF0.0872093023255814
aa(lp2687
F0.9354838709677419
aF0.06451612903225806
aa(lp2688
F0.6235294117647059
aF0.3764705882352941
aa(lp2689
F0.8666666666666667
aF0.13333333333333333
aa(lp2690
F0.8846153846153846
aF0.11538461538461539
aa(lp2691
F0.6607142857142857
aF0.3392857142857143
aa(lp2692
F0.8878504672897196
aF0.11214953271028037
aa(lp2693
F0.9166666666666666
aF0.08333333333333333
aa(lp2694
F0.7549019607843137
aF0.24509803921568626
aa(lp2695
F0.7564102564102564
aF0.24358974358974358
aa(lp2696
F0.6619718309859155
aF0.3380281690140845
aa(lp2697
F0.88
aF0.12
aa(lp2698
F0.6213592233009708
aF0.3786407766990291
aa(lp2699
F0.8516320474777448
aF0.14836795252225518
aa(lp2700
F0.765625
aF0.234375
aa(lp2701
F0.8404907975460123
aF0.15950920245398773
aa(lp2702
F0.7610619469026548
aF0.23893805309734514
aa(lp2703
F0.5882352941176471
aF0.4117647058823529
aa(lp2704
F0.7894736842105263
aF0.21052631578947367
aa(lp2705
F0.891566265060241
aF0.10843373493975904
aa(lp2706
F0.8876538308852719
aF0.11234616911472807
aa(lp2707
F0.5849056603773585
aF0.41509433962264153
aa(lp2708
F0.8409090909090909
aF0.1590909090909091
aa(lp2709
F0.7875
aF0.2125
aa(lp2710
F0.7232142857142857
aF0.2767857142857143
aa(lp2711
F0.5942028985507246
aF0.4057971014492754
aa(lp2712
F0.7058823529411765
aF0.29411764705882354
aa(lp2713
F0.6129032258064516
aF0.3870967741935484
aa(lp2714
F0.7741935483870968
aF0.22580645161290322
aa(lp2715
F0.8016528925619835
aF0.19834710743801653
aa(lp2716
F0.9296482412060302
aF0.07035175879396985
aa(lp2717
F0.7688172043010753
aF0.23118279569892472
aa(lp2718
F0.7619047619047619
aF0.23809523809523808
aa(lp2719
F0.8723404255319149
aF0.1276595744680851
aa(lp2720
F0.7652173913043478
aF0.23478260869565218
aa(lp2721
F0.627906976744186
aF0.37209302325581395
aa(lp2722
F0.5
aF0.5
aa(lp2723
F0.7083333333333334
aF0.2916666666666667
aa(lp2724
F0.4117647058823529
aF0.5882352941176471
aa(lp2725
F0.6727272727272727
aF0.32727272727272727
aa(lp2726
F0.7884615384615384
aF0.21153846153846154
aa(lp2727
F0.7864077669902912
aF0.21359223300970873
aa(lp2728
F0.6666666666666666
aF0.3333333333333333
aa(lp2729
F0.7710843373493976
aF0.2289156626506024
aa(lp2730
F0.7387387387387387
aF0.26126126126126126
aa(lp2731
F0.7317073170731707
aF0.2682926829268293
aa(lp2732
F0.8778625954198473
aF0.12213740458015267
aa(lp2733
F0.6991150442477876
aF0.3008849557522124
aa(lp2734
F0.7705882352941177
aF0.22941176470588234
aa(lp2735
F0.9162548764629389
aF0.08374512353706112
aa(lp2736
F0.6774193548387096
aF0.3225806451612903
aa(lp2737
F0.5806451612903226
aF0.41935483870967744
aa(lp2738
F0.6946564885496184
aF0.3053435114503817
aa(lp2739
F0.6582278481012658
aF0.34177215189873417
aa(lp2740
F0.7590361445783133
aF0.24096385542168675
aa(lp2741
F0.6507936507936508
aF0.3492063492063492
aa(lp2742
F0.8051948051948052
aF0.19480519480519481
aa(lp2743
F0.5641025641025641
aF0.4358974358974359
aa(lp2744
F0.6078431372549019
aF0.39215686274509803
aa(lp2745
F0.908256880733945
aF0.09174311926605505
aa(lp2746
F0.7745098039215687
aF0.22549019607843138
aa(lp2747
F0.6440677966101694
aF0.3559322033898305
aa(lp2748
F0.7580645161290323
aF0.24193548387096775
aa(lp2749
F0.813953488372093
aF0.18604651162790697
aa(lp2750
F0.8155737704918032
aF0.18442622950819673
aa(lp2751
F0.9181818181818182
aF0.08181818181818182
aa(lp2752
F0.9141818181818182
aF0.08581818181818182
aa(lp2753
F0.8620689655172413
aF0.13793103448275862
aa(lp2754
F0.8
aF0.2
aa(lp2755
F0.8
aF0.2
aa(lp2756
F0.7092198581560284
aF0.2907801418439716
aa(lp2757
F0.8985507246376812
aF0.10144927536231885
aa(lp2758
F0.8522727272727273
aF0.14772727272727273
aa(lp2759
F0.8924731182795699
aF0.10752688172043011
aa(lp2760
F0.9663638121012952
aF0.03363618789870482
aa.