(lp0
(lp1
F0.6464646464646465
aF0.2828282828282828
aF0.0707070707070707
aa(lp2
F0.4634146341463415
aF0.2682926829268293
aF0.2682926829268293
aa(lp3
F0.5813953488372093
aF0.32558139534883723
aF0.09302325581395349
aa(lp4
F0.4276729559748428
aF0.31446540880503143
aF0.2578616352201258
aa(lp5
F0.5682382133995038
aF0.29280397022332505
aF0.13895781637717122
aa(lp6
F0.4723926380368098
aF0.4233128834355828
aF0.10429447852760736
aa(lp7
F0.46987951807228917
aF0.5060240963855421
aF0.024096385542168676
aa(lp8
F0.5333333333333333
aF0.29333333333333333
aF0.17333333333333334
aa(lp9
F0.42168674698795183
aF0.2891566265060241
aF0.2891566265060241
aa(lp10
F0.26666666666666666
aF0.5
aF0.23333333333333334
aa(lp11
F0.3963730569948187
aF0.5181347150259067
aF0.08549222797927461
aa(lp12
F0.3333333333333333
aF0.46296296296296297
aF0.2037037037037037
aa(lp13
F0.4948453608247423
aF0.4020618556701031
aF0.10309278350515463
aa(lp14
F0.5825242718446602
aF0.3300970873786408
aF0.08737864077669903
aa(lp15
F0.3548387096774194
aF0.3870967741935484
aF0.25806451612903225
aa(lp16
F0.6048387096774194
aF0.3548387096774194
aF0.04032258064516129
aa(lp17
F0.36
aF0.24
aF0.4
aa(lp18
F0.4745762711864407
aF0.3220338983050847
aF0.2033898305084746
aa(lp19
F0.30303030303030304
aF0.2878787878787879
aF0.4090909090909091
aa(lp20
F0.6458333333333334
aF0.1875
aF0.16666666666666666
aa(lp21
F0.5636363636363636
aF0.36363636363636365
aF0.07272727272727272
aa(lp22
F0.5416666666666666
aF0.3958333333333333
aF0.0625
aa(lp23
F0.6479750778816199
aF0.2834890965732087
aF0.06853582554517133
aa(lp24
F0.6231884057971014
aF0.30434782608695654
aF0.07246376811594203
aa(lp25
F0.6296296296296297
aF0.26666666666666666
aF0.1037037037037037
aa(lp26
F0.6634615384615384
aF0.21153846153846154
aF0.125
aa(lp27
F0.4875
aF0.5
aF0.0125
aa(lp28
F0.3103448275862069
aF0.3793103448275862
aF0.3103448275862069
aa(lp29
F0.43137254901960786
aF0.43137254901960786
aF0.13725490196078433
aa(lp30
F0.4489795918367347
aF0.4489795918367347
aF0.10204081632653061
aa(lp31
F0.4915254237288136
aF0.3220338983050847
aF0.1864406779661017
aa(lp32
F0.527027027027027
aF0.24324324324324326
aF0.22972972972972974
aa(lp33
F0.5643939393939394
aF0.3333333333333333
aF0.10227272727272728
aa(lp34
F0.12605042016806722
aF0.8403361344537815
aF0.03361344537815126
aa(lp35
F0.410958904109589
aF0.3835616438356164
aF0.2054794520547945
aa(lp36
F0.6015037593984962
aF0.2932330827067669
aF0.10526315789473684
aa(lp37
F0.33093525179856115
aF0.6402877697841727
aF0.02877697841726619
aa(lp38
F0.6111111111111112
aF0.3
aF0.08888888888888889
aa(lp39
F0.6451612903225806
aF0.22580645161290322
aF0.12903225806451613
aa(lp40
F0.5
aF0.10869565217391304
aF0.391304347826087
aa(lp41
F0.012024048096192385
aF0.9779559118236473
aF0.01002004008016032
aa(lp42
F0.3416666666666667
aF0.475
aF0.18333333333333332
aa(lp43
F0.40625
aF0.4921875
aF0.1015625
aa(lp44
F0.4576271186440678
aF0.3559322033898305
aF0.1864406779661017
aa(lp45
F0.5660377358490566
aF0.2641509433962264
aF0.16981132075471697
aa(lp46
F0.6369047619047619
aF0.21428571428571427
aF0.1488095238095238
aa(lp47
F0.29
aF0.43
aF0.28
aa(lp48
F0.21212121212121213
aF0.696969696969697
aF0.09090909090909091
aa(lp49
F0.5706806282722513
aF0.18324607329842932
aF0.24607329842931938
aa(lp50
F0.5
aF0.3088235294117647
aF0.19117647058823528
aa(lp51
F0.5630252100840336
aF0.33613445378151263
aF0.10084033613445378
aa(lp52
F0.296875
aF0.625
aF0.078125
aa(lp53
F0.3684210526315789
aF0.4105263157894737
aF0.22105263157894736
aa(lp54
F0.2653061224489796
aF0.42857142857142855
aF0.30612244897959184
aa(lp55
F0.6451612903225806
aF0.27419354838709675
aF0.08064516129032258
aa(lp56
F0.5128205128205128
aF0.41025641025641024
aF0.07692307692307693
aa(lp57
F0.39215686274509803
aF0.4117647058823529
aF0.19607843137254902
aa(lp58
F0.5602536997885835
aF0.3890063424947146
aF0.0507399577167019
aa(lp59
F0.47540983606557374
aF0.32786885245901637
aF0.19672131147540983
aa(lp60
F0.41025641025641024
aF0.532051282051282
aF0.057692307692307696
aa(lp61
F0.5688622754491018
aF0.2634730538922156
aF0.16766467065868262
aa(lp62
F0.6222222222222222
aF0.24444444444444444
aF0.13333333333333333
aa(lp63
F0.3448275862068966
aF0.3793103448275862
aF0.27586206896551724
aa(lp64
F0.6419753086419753
aF0.12345679012345678
aF0.2345679012345679
aa(lp65
F0.6868131868131868
aF0.23076923076923078
aF0.08241758241758242
aa(lp66
F0.4883720930232558
aF0.3488372093023256
aF0.16279069767441862
aa(lp67
F0.7916666666666666
aF0.1875
aF0.020833333333333332
aa(lp68
F0.39215686274509803
aF0.47058823529411764
aF0.13725490196078433
aa(lp69
F0.5
aF0.3737864077669903
aF0.1262135922330097
aa(lp70
F0.45535714285714285
aF0.4107142857142857
aF0.13392857142857142
aa(lp71
F0.47368421052631576
aF0.47368421052631576
aF0.05263157894736842
aa(lp72
F0.37175792507204614
aF0.48703170028818443
aF0.14121037463976946
aa(lp73
F0.5425531914893617
aF0.3617021276595745
aF0.09574468085106383
aa(lp74
F0.5794392523364486
aF0.308411214953271
aF0.11214953271028037
aa(lp75
F0.6701388888888888
aF0.2361111111111111
aF0.09375
aa(lp76
F0.33962264150943394
aF0.4339622641509434
aF0.22641509433962265
aa(lp77
F0.018260869565217393
aF0.9686956521739131
aF0.013043478260869565
aa(lp78
F0.5008460236886633
aF0.40947546531302875
aF0.08967851099830795
aa(lp79
F0.49242424242424243
aF0.30303030303030304
aF0.20454545454545456
aa(lp80
F0.4067796610169492
aF0.5254237288135594
aF0.06779661016949153
aa(lp81
F0.6091954022988506
aF0.3103448275862069
aF0.08045977011494253
aa(lp82
F0.37
aF0.45
aF0.18
aa(lp83
F0.5666666666666667
aF0.35333333333333333
aF0.08
aa(lp84
F0.34146341463414637
aF0.3170731707317073
aF0.34146341463414637
aa(lp85
F0.2222222222222222
aF0.5370370370370371
aF0.24074074074074073
aa(lp86
F0.6237623762376238
aF0.3069306930693069
aF0.06930693069306931
aa(lp87
F0.7384615384615385
aF0.12307692307692308
aF0.13846153846153847
aa(lp88
F0.5652173913043478
aF0.2391304347826087
aF0.1956521739130435
aa(lp89
F0.5441176470588235
aF0.22058823529411764
aF0.23529411764705882
aa(lp90
F0.3880597014925373
aF0.40298507462686567
aF0.208955223880597
aa(lp91
F0.36231884057971014
aF0.5507246376811594
aF0.08695652173913043
aa(lp92
F0.6583333333333333
aF0.19166666666666668
aF0.15
aa(lp93
F0.4717948717948718
aF0.41025641025641024
aF0.11794871794871795
aa(lp94
F0.44680851063829785
aF0.46808510638297873
aF0.0851063829787234
aa(lp95
F0.5268817204301075
aF0.43010752688172044
aF0.043010752688172046
aa(lp96
F0.5638297872340425
aF0.3191489361702128
aF0.11702127659574468
aa(lp97
F0.54
aF0.34
aF0.12
aa(lp98
F0.6
aF0.22857142857142856
aF0.17142857142857143
aa(lp99
F0.8148148148148148
aF0.12962962962962962
aF0.05555555555555555
aa(lp100
F0.3125
aF0.4166666666666667
aF0.2708333333333333
aa(lp101
F0.5333333333333333
aF0.3
aF0.16666666666666666
aa(lp102
F0.6037735849056604
aF0.2830188679245283
aF0.11320754716981132
aa(lp103
F0.5402843601895735
aF0.33649289099526064
aF0.12322274881516587
aa(lp104
F0.535931790499391
aF0.39707673568818513
aF0.06699147381242387
aa(lp105
F0.52
aF0.26
aF0.22
aa(lp106
F0.3770491803278688
aF0.5573770491803278
aF0.06557377049180328
aa(lp107
F0.7017543859649122
aF0.20175438596491227
aF0.09649122807017543
aa(lp108
F0.5833333333333334
aF0.3125
aF0.10416666666666667
aa(lp109
F0.55
aF0.42083333333333334
aF0.029166666666666667
aa(lp110
F0.24358974358974358
aF0.6410256410256411
aF0.11538461538461539
aa(lp111
F0.7659574468085106
aF0.1276595744680851
aF0.10638297872340426
aa(lp112
F0.743801652892562
aF0.1487603305785124
aF0.10743801652892562
aa(lp113
F0.6133333333333333
aF0.26666666666666666
aF0.12
aa(lp114
F0.34594594594594597
aF0.3891891891891892
aF0.2648648648648649
aa(lp115
F0.21818181818181817
aF0.4
aF0.38181818181818183
aa(lp116
F0.5185185185185185
aF0.37037037037037035
aF0.1111111111111111
aa(lp117
F0.4888888888888889
aF0.4
aF0.1111111111111111
aa(lp118
F0.7430340557275542
aF0.17027863777089783
aF0.08668730650154799
aa(lp119
F0.4380952380952381
aF0.3142857142857143
aF0.24761904761904763
aa(lp120
F0.7222222222222222
aF0.18518518518518517
aF0.09259259259259259
aa(lp121
F0.5481927710843374
aF0.3674698795180723
aF0.08433734939759036
aa(lp122
F0.39285714285714285
aF0.32142857142857145
aF0.2857142857142857
aa(lp123
F0.5660377358490566
aF0.2830188679245283
aF0.1509433962264151
aa(lp124
F0.540625
aF0.271875
aF0.1875
aa(lp125
F0.25569176882662
aF0.6532399299474606
aF0.09106830122591944
aa(lp126
F0.3103448275862069
aF0.41379310344827586
aF0.27586206896551724
aa(lp127
F0.4583333333333333
aF0.4270833333333333
aF0.11458333333333333
aa(lp128
F0.36666666666666664
aF0.4
aF0.23333333333333334
aa(lp129
F0.572139303482587
aF0.3880597014925373
aF0.03980099502487562
aa(lp130
F0.5911949685534591
aF0.25157232704402516
aF0.15723270440251572
aa(lp131
F0.6986301369863014
aF0.19863013698630136
aF0.10273972602739725
aa(lp132
F0.625
aF0.25
aF0.125
aa(lp133
F0.6257668711656442
aF0.19631901840490798
aF0.17791411042944785
aa(lp134
F0.4576271186440678
aF0.4576271186440678
aF0.0847457627118644
aa(lp135
F0.2727272727272727
aF0.5454545454545454
aF0.18181818181818182
aa(lp136
F0.5483870967741935
aF0.2903225806451613
aF0.16129032258064516
aa(lp137
F0.40425531914893614
aF0.3829787234042553
aF0.2127659574468085
aa(lp138
F0.36666666666666664
aF0.6
aF0.03333333333333333
aa(lp139
F0.45454545454545453
aF0.14285714285714285
aF0.4025974025974026
aa(lp140
F0.46153846153846156
aF0.33444816053511706
aF0.2040133779264214
aa(lp141
F0.5
aF0.3974358974358974
aF0.10256410256410256
aa(lp142
F0.6086956521739131
aF0.30434782608695654
aF0.08695652173913043
aa(lp143
F0.44036697247706424
aF0.3853211009174312
aF0.1743119266055046
aa(lp144
F0.5833333333333334
aF0.3333333333333333
aF0.08333333333333333
aa(lp145
F0.4764705882352941
aF0.4117647058823529
aF0.11176470588235295
aa(lp146
F0.6262626262626263
aF0.30303030303030304
aF0.0707070707070707
aa(lp147
F0.32653061224489793
aF0.40816326530612246
aF0.2653061224489796
aa(lp148
F0.4864864864864865
aF0.4189189189189189
aF0.0945945945945946
aa(lp149
F0.5493975903614458
aF0.3204819277108434
aF0.13012048192771083
aa(lp150
F0.3576158940397351
aF0.47019867549668876
aF0.17218543046357615
aa(lp151
F0.19047619047619047
aF0.5833333333333334
aF0.2261904761904762
aa(lp152
F0.5903614457831325
aF0.3132530120481928
aF0.0963855421686747
aa(lp153
F0.6153846153846154
aF0.3076923076923077
aF0.07692307692307693
aa(lp154
F0.449438202247191
aF0.449438202247191
aF0.10112359550561797
aa(lp155
F0.5384615384615384
aF0.3504273504273504
aF0.1111111111111111
aa(lp156
F0.3879781420765027
aF0.3333333333333333
aF0.2786885245901639
aa(lp157
F0.6382978723404256
aF0.2425531914893617
aF0.11914893617021277
aa(lp158
F0.36363636363636365
aF0.5227272727272727
aF0.11363636363636363
aa(lp159
F0.6078431372549019
aF0.20915032679738563
aF0.1830065359477124
aa(lp160
F0.6791044776119403
aF0.23134328358208955
aF0.08955223880597014
aa(lp161
F0.26785714285714285
aF0.5357142857142857
aF0.19642857142857142
aa(lp162
F0.35135135135135137
aF0.5585585585585585
aF0.09009009009009009
aa(lp163
F0.6178343949044586
aF0.2484076433121019
aF0.1337579617834395
aa(lp164
F0.535483870967742
aF0.3548387096774194
aF0.10967741935483871
aa(lp165
F0.7352941176470589
aF0.23529411764705882
aF0.029411764705882353
aa(lp166
F0.6131386861313869
aF0.2846715328467153
aF0.10218978102189781
aa(lp167
F0.5396825396825397
aF0.2857142857142857
aF0.1746031746031746
aa(lp168
F0.44
aF0.52
aF0.04
aa(lp169
F0.5405405405405406
aF0.36036036036036034
aF0.0990990990990991
aa(lp170
F0.611764705882353
aF0.3176470588235294
aF0.07058823529411765
aa(lp171
F0.589041095890411
aF0.2808219178082192
aF0.13013698630136986
aa(lp172
F0.5333333333333333
aF0.26666666666666666
aF0.2
aa(lp173
F0.6701030927835051
aF0.18556701030927836
aF0.14432989690721648
aa(lp174
F0.6310679611650486
aF0.22330097087378642
aF0.14563106796116504
aa(lp175
F0.797752808988764
aF0.11235955056179775
aF0.0898876404494382
aa(lp176
F0.41379310344827586
aF0.3793103448275862
aF0.20689655172413793
aa(lp177
F0.7107438016528925
aF0.17355371900826447
aF0.11570247933884298
aa(lp178
F0.6888888888888889
aF0.15555555555555556
aF0.15555555555555556
aa(lp179
F0.6896551724137931
aF0.08275862068965517
aF0.22758620689655173
aa(lp180
F0.35185185185185186
aF0.5185185185185185
aF0.12962962962962962
aa(lp181
F0.5388888888888889
aF0.3277777777777778
aF0.13333333333333333
aa(lp182
F0.7432432432432432
aF0.13513513513513514
aF0.12162162162162163
aa(lp183
F0.35294117647058826
aF0.4411764705882353
aF0.20588235294117646
aa(lp184
F0.391304347826087
aF0.30434782608695654
aF0.30434782608695654
aa(lp185
F0.3469387755102041
aF0.45918367346938777
aF0.19387755102040816
aa(lp186
F0.004555808656036446
aF0.9840546697038725
aF0.011389521640091117
aa(lp187
F0.7328767123287672
aF0.17123287671232876
aF0.0958904109589041
aa(lp188
F0.3798449612403101
aF0.5581395348837209
aF0.06201550387596899
aa(lp189
F0.5862068965517241
aF0.1839080459770115
aF0.22988505747126436
aa(lp190
F0.5714285714285714
aF0.3469387755102041
aF0.08163265306122448
aa(lp191
F0.43434343434343436
aF0.4444444444444444
aF0.12121212121212122
aa(lp192
F0.1875
aF0.234375
aF0.578125
aa(lp193
F0.24
aF0.56
aF0.2
aa(lp194
F0.013123359580052493
aF0.9755030621172354
aF0.011373578302712161
aa(lp195
F0.4731182795698925
aF0.22043010752688172
aF0.3064516129032258
aa(lp196
F0.5714285714285714
aF0.35714285714285715
aF0.07142857142857142
aa(lp197
F0.4583333333333333
aF0.4074074074074074
aF0.13425925925925927
aa(lp198
F0.6153846153846154
aF0.3418803418803419
aF0.042735042735042736
aa(lp199
F0.8026315789473685
aF0.09210526315789473
aF0.10526315789473684
aa(lp200
F0.44274809160305345
aF0.26717557251908397
aF0.2900763358778626
aa(lp201
F0.3382352941176471
aF0.5
aF0.16176470588235295
aa(lp202
F0.6615384615384615
aF0.2153846153846154
aF0.12307692307692308
aa(lp203
F0.5251396648044693
aF0.2905027932960894
aF0.18435754189944134
aa(lp204
F0.39473684210526316
aF0.34210526315789475
aF0.2631578947368421
aa(lp205
F0.6
aF0.17777777777777778
aF0.2222222222222222
aa(lp206
F0.625
aF0.2708333333333333
aF0.10416666666666667
aa(lp207
F0.660377358490566
aF0.27358490566037735
aF0.0660377358490566
aa(lp208
F0.3157894736842105
aF0.38596491228070173
aF0.2982456140350877
aa(lp209
F0.6607142857142857
aF0.14285714285714285
aF0.19642857142857142
aa(lp210
F0.5606060606060606
aF0.36363636363636365
aF0.07575757575757576
aa(lp211
F0.625
aF0.2777777777777778
aF0.09722222222222222
aa(lp212
F0.6842105263157895
aF0.22807017543859648
aF0.08771929824561403
aa(lp213
F0.19117647058823528
aF0.35294117647058826
aF0.45588235294117646
aa(lp214
F0.7428571428571429
aF0.12857142857142856
aF0.12857142857142856
aa(lp215
F0.5288461538461539
aF0.22115384615384615
aF0.25
aa(lp216
F0.6107954545454546
aF0.20454545454545456
aF0.1846590909090909
aa(lp217
F0.47619047619047616
aF0.42857142857142855
aF0.09523809523809523
aa(lp218
F0.6678082191780822
aF0.21575342465753425
aF0.11643835616438356
aa(lp219
F0.43333333333333335
aF0.48333333333333334
aF0.08333333333333333
aa(lp220
F0.4726027397260274
aF0.4178082191780822
aF0.1095890410958904
aa(lp221
F0.6631016042780749
aF0.31016042780748665
aF0.026737967914438502
aa(lp222
F0.7604166666666666
aF0.15625
aF0.08333333333333333
aa(lp223
F0.018036072144288578
aF0.9739478957915831
aF0.008016032064128256
aa(lp224
F0.4375
aF0.20833333333333334
aF0.3541666666666667
aa(lp225
F0.5189873417721519
aF0.3037974683544304
aF0.17721518987341772
aa(lp226
F0.5947955390334573
aF0.2899628252788104
aF0.11524163568773234
aa(lp227
F0.5760869565217391
aF0.33695652173913043
aF0.08695652173913043
aa(lp228
F0.3888888888888889
aF0.3333333333333333
aF0.2777777777777778
aa(lp229
F0.2828282828282828
aF0.5555555555555556
aF0.16161616161616163
aa(lp230
F0.27906976744186046
aF0.5872093023255814
aF0.13372093023255813
aa(lp231
F0.3870967741935484
aF0.4731182795698925
aF0.13978494623655913
aa(lp232
F0.40948275862068967
aF0.5129310344827587
aF0.07758620689655173
aa(lp233
F0.2641509433962264
aF0.5849056603773585
aF0.1509433962264151
aa(lp234
F0.7666666666666667
aF0.1
aF0.13333333333333333
aa(lp235
F0.5342465753424658
aF0.3287671232876712
aF0.136986301369863
aa(lp236
F0.3728813559322034
aF0.3559322033898305
aF0.2711864406779661
aa(lp237
F0.23809523809523808
aF0.5714285714285714
aF0.19047619047619047
aa(lp238
F0.30434782608695654
aF0.45652173913043476
aF0.2391304347826087
aa(lp239
F0.5512820512820513
aF0.3076923076923077
aF0.14102564102564102
aa(lp240
F0.5254237288135594
aF0.3813559322033898
aF0.09322033898305085
aa(lp241
F0.06752411575562701
aF0.8906752411575563
aF0.04180064308681672
aa(lp242
F0.2807017543859649
aF0.3684210526315789
aF0.3508771929824561
aa(lp243
F0.43333333333333335
aF0.43333333333333335
aF0.13333333333333333
aa(lp244
F0.5476190476190477
aF0.21428571428571427
aF0.23809523809523808
aa(lp245
F0.5066666666666667
aF0.43333333333333335
aF0.06
aa(lp246
F0.2863070539419087
aF0.6846473029045643
aF0.029045643153526972
aa(lp247
F0.4166666666666667
aF0.48333333333333334
aF0.1
aa(lp248
F0.696078431372549
aF0.0392156862745098
aF0.2647058823529412
aa(lp249
F0.7
aF0.20588235294117646
aF0.09411764705882353
aa(lp250
F0.5789473684210527
aF0.3308270676691729
aF0.09022556390977443
aa(lp251
F0.4583333333333333
aF0.2916666666666667
aF0.25
aa(lp252
F0.3333333333333333
aF0.5308641975308642
aF0.13580246913580246
aa(lp253
F0.5177865612648221
aF0.3675889328063241
aF0.11462450592885376
aa(lp254
F0.5978260869565217
aF0.2717391304347826
aF0.13043478260869565
aa(lp255
F0.673469387755102
aF0.22448979591836735
aF0.10204081632653061
aa(lp256
F0.45454545454545453
aF0.36363636363636365
aF0.18181818181818182
aa(lp257
F0.5
aF0.25
aF0.25
aa(lp258
F0.6074074074074074
aF0.16296296296296298
aF0.22962962962962963
aa(lp259
F0.34831460674157305
aF0.3595505617977528
aF0.29213483146067415
aa(lp260
F0.4125874125874126
aF0.42657342657342656
aF0.16083916083916083
aa(lp261
F0.5454545454545454
aF0.33636363636363636
aF0.11818181818181818
aa(lp262
F0.6451612903225806
aF0.3225806451612903
aF0.03225806451612903
aa(lp263
F0.417910447761194
aF0.23134328358208955
aF0.35074626865671643
aa(lp264
F0.5769230769230769
aF0.3
aF0.12307692307692308
aa(lp265
F0.6830985915492958
aF0.2535211267605634
aF0.06338028169014084
aa(lp266
F0.47297297297297297
aF0.3783783783783784
aF0.14864864864864866
aa(lp267
F0.4222222222222222
aF0.28888888888888886
aF0.28888888888888886
aa(lp268
F0.359375
aF0.359375
aF0.28125
aa(lp269
F0.5822784810126582
aF0.22784810126582278
aF0.189873417721519
aa(lp270
F0.425531914893617
aF0.4787234042553192
aF0.09574468085106383
aa(lp271
F0.5730337078651685
aF0.3146067415730337
aF0.11235955056179775
aa(lp272
F0.42920353982300885
aF0.5176991150442478
aF0.05309734513274336
aa(lp273
F0.4371584699453552
aF0.29508196721311475
aF0.2677595628415301
aa(lp274
F0.5333333333333333
aF0.38666666666666666
aF0.08
aa(lp275
F0.48717948717948717
aF0.4358974358974359
aF0.07692307692307693
aa(lp276
F0.5921052631578947
aF0.2631578947368421
aF0.14473684210526316
aa(lp277
F0.453125
aF0.171875
aF0.375
aa(lp278
F0.547945205479452
aF0.3287671232876712
aF0.1232876712328767
aa(lp279
F0.5833333333333334
aF0.16666666666666666
aF0.25
aa(lp280
F0.7121212121212122
aF0.2222222222222222
aF0.06565656565656566
aa(lp281
F0.23636363636363636
aF0.41818181818181815
aF0.34545454545454546
aa(lp282
F0.33695652173913043
aF0.30434782608695654
aF0.358695652173913
aa(lp283
F0.3815789473684211
aF0.11842105263157894
aF0.5
aa(lp284
F0.4186046511627907
aF0.2558139534883721
aF0.32558139534883723
aa(lp285
F0.5185185185185185
aF0.26851851851851855
aF0.21296296296296297
aa(lp286
F0.5065502183406113
aF0.3930131004366812
aF0.10043668122270742
aa(lp287
F0.3979591836734694
aF0.5
aF0.10204081632653061
aa(lp288
F0.6538461538461539
aF0.3153846153846154
aF0.03076923076923077
aa(lp289
F0.6381578947368421
aF0.27631578947368424
aF0.08552631578947369
aa(lp290
F0.5085714285714286
aF0.3314285714285714
aF0.16
aa(lp291
F0.42528735632183906
aF0.3793103448275862
aF0.19540229885057472
aa(lp292
F0.4806201550387597
aF0.24806201550387597
aF0.2713178294573643
aa(lp293
F0.6793650793650794
aF0.1523809523809524
aF0.16825396825396827
aa(lp294
F0.5164835164835165
aF0.42857142857142855
aF0.054945054945054944
aa(lp295
F0.5340909090909091
aF0.42045454545454547
aF0.045454545454545456
aa(lp296
F0.6632653061224489
aF0.23469387755102042
aF0.10204081632653061
aa(lp297
F0.34285714285714286
aF0.5142857142857142
aF0.14285714285714285
aa(lp298
F0.5569620253164557
aF0.22784810126582278
aF0.21518987341772153
aa(lp299
F0.5
aF0.44285714285714284
aF0.05714285714285714
aa(lp300
F0.625
aF0.25
aF0.125
aa(lp301
F0.5777777777777777
aF0.2222222222222222
aF0.2
aa(lp302
F0.22289156626506024
aF0.6807228915662651
aF0.0963855421686747
aa(lp303
F0.5172413793103449
aF0.3448275862068966
aF0.13793103448275862
aa(lp304
F0.581081081081081
aF0.21621621621621623
aF0.20270270270270271
aa(lp305
F0.44
aF0.36
aF0.2
aa(lp306
F0.6
aF0.3047619047619048
aF0.09523809523809523
aa(lp307
F0.6
aF0.3
aF0.1
aa(lp308
F0.412
aF0.436
aF0.152
aa(lp309
F0.0064516129032258064
aF0.9849462365591398
aF0.008602150537634409
aa(lp310
F0.3767349636483807
aF0.543291473892928
aF0.07997356245869135
aa(lp311
F0.5869565217391305
aF0.21739130434782608
aF0.1956521739130435
aa(lp312
F0.6776119402985075
aF0.18507462686567164
aF0.1373134328358209
aa(lp313
F0.39296924042686754
aF0.5599497802887633
aF0.047080979284369114
aa(lp314
F0.5688888888888889
aF0.38222222222222224
aF0.04888888888888889
aa(lp315
F0.45645645645645644
aF0.4864864864864865
aF0.057057057057057055
aa(lp316
F0.3333333333333333
aF0.37037037037037035
aF0.2962962962962963
aa(lp317
F0.29411764705882354
aF0.5
aF0.20588235294117646
aa(lp318
F0.5321100917431193
aF0.3211009174311927
aF0.14678899082568808
aa(lp319
F0.37362637362637363
aF0.3076923076923077
aF0.31868131868131866
aa(lp320
F0.17567567567567569
aF0.7719594594594594
aF0.052364864864864864
aa(lp321
F0.5934065934065934
aF0.32967032967032966
aF0.07692307692307693
aa(lp322
F0.4430379746835443
aF0.35443037974683544
aF0.20253164556962025
aa(lp323
F0.6973684210526315
aF0.25
aF0.05263157894736842
aa(lp324
F0.6216216216216216
aF0.24324324324324326
aF0.13513513513513514
aa(lp325
F0.3103448275862069
aF0.5172413793103449
aF0.1724137931034483
aa(lp326
F0.4473684210526316
aF0.42105263157894735
aF0.13157894736842105
aa(lp327
F0.34285714285714286
aF0.4514285714285714
aF0.2057142857142857
aa(lp328
F0.5357142857142857
aF0.18571428571428572
aF0.2785714285714286
aa(lp329
F0.55
aF0.37
aF0.08
aa(lp330
F0.32432432432432434
aF0.2702702702702703
aF0.40540540540540543
aa(lp331
F0.328125
aF0.546875
aF0.125
aa(lp332
F0.5102040816326531
aF0.3469387755102041
aF0.14285714285714285
aa(lp333
F0.2616822429906542
aF0.6542056074766355
aF0.08411214953271028
aa(lp334
F0.5671641791044776
aF0.35074626865671643
aF0.08208955223880597
aa(lp335
F0.6578947368421053
aF0.21052631578947367
aF0.13157894736842105
aa(lp336
F0.58
aF0.16
aF0.26
aa(lp337
F0.6127167630057804
aF0.2774566473988439
aF0.10982658959537572
aa(lp338
F0.5510204081632653
aF0.1836734693877551
aF0.2653061224489796
aa(lp339
F0.35
aF0.55
aF0.1
aa(lp340
F0.5510204081632653
aF0.2755102040816326
aF0.17346938775510204
aa(lp341
F0.15517241379310345
aF0.46551724137931033
aF0.3793103448275862
aa(lp342
F0.5991561181434599
aF0.28270042194092826
aF0.11814345991561181
aa(lp343
F0.6
aF0.22
aF0.18
aa(lp344
F0.6428571428571429
aF0.25
aF0.10714285714285714
aa(lp345
F0.18700787401574803
aF0.7795275590551181
aF0.03346456692913386
aa(lp346
F0.6145833333333334
aF0.21875
aF0.16666666666666666
aa(lp347
F0.3992673992673993
aF0.5311355311355311
aF0.0695970695970696
aa(lp348
F0.5
aF0.15
aF0.35
aa(lp349
F0.4939759036144578
aF0.2891566265060241
aF0.21686746987951808
aa(lp350
F0.5454545454545454
aF0.36363636363636365
aF0.09090909090909091
aa(lp351
F0.40350877192982454
aF0.42105263157894735
aF0.17543859649122806
aa(lp352
F0.6890756302521008
aF0.07563025210084033
aF0.23529411764705882
aa(lp353
F0.42857142857142855
aF0.37142857142857144
aF0.2
aa(lp354
F0.43478260869565216
aF0.3695652173913043
aF0.1956521739130435
aa(lp355
F0.5303030303030303
aF0.2727272727272727
aF0.19696969696969696
aa(lp356
F0.6126126126126126
aF0.32432432432432434
aF0.06306306306306306
aa(lp357
F0.5303030303030303
aF0.3560606060606061
aF0.11363636363636363
aa(lp358
F0.5138888888888888
aF0.4027777777777778
aF0.08333333333333333
aa(lp359
F0.582089552238806
aF0.31343283582089554
aF0.1044776119402985
aa(lp360
F0.5833333333333334
aF0.2833333333333333
aF0.13333333333333333
aa(lp361
F0.3953488372093023
aF0.43023255813953487
aF0.1744186046511628
aa(lp362
F0.6415094339622641
aF0.22641509433962265
aF0.1320754716981132
aa(lp363
F0.4717948717948718
aF0.35384615384615387
aF0.17435897435897435
aa(lp364
F0.27741935483870966
aF0.6258064516129033
aF0.0967741935483871
aa(lp365
F0.6022727272727273
aF0.2159090909090909
aF0.18181818181818182
aa(lp366
F0.6912442396313364
aF0.1935483870967742
aF0.1152073732718894
aa(lp367
F0.4523809523809524
aF0.30952380952380953
aF0.23809523809523808
aa(lp368
F0.4782608695652174
aF0.3333333333333333
aF0.18840579710144928
aa(lp369
F0.3103448275862069
aF0.3793103448275862
aF0.3103448275862069
aa(lp370
F0.5909090909090909
aF0.2727272727272727
aF0.13636363636363635
aa(lp371
F0.24242424242424243
aF0.6060606060606061
aF0.15151515151515152
aa(lp372
F0.5533980582524272
aF0.2815533980582524
aF0.1650485436893204
aa(lp373
F0.43103448275862066
aF0.3275862068965517
aF0.2413793103448276
aa(lp374
F0.7171052631578947
aF0.21710526315789475
aF0.06578947368421052
aa(lp375
F0.6304347826086957
aF0.15217391304347827
aF0.21739130434782608
aa(lp376
F0.30357142857142855
aF0.48214285714285715
aF0.21428571428571427
aa(lp377
F0.84
aF0.09333333333333334
aF0.06666666666666667
aa(lp378
F0.2
aF0.5
aF0.3
aa(lp379
F0.5614035087719298
aF0.19298245614035087
aF0.24561403508771928
aa(lp380
F0.6615384615384615
aF0.18461538461538463
aF0.15384615384615385
aa(lp381
F0.2857142857142857
aF0.32142857142857145
aF0.39285714285714285
aa(lp382
F0.6711111111111111
aF0.26666666666666666
aF0.06222222222222222
aa(lp383
F0.5966228893058161
aF0.324577861163227
aF0.07879924953095685
aa(lp384
F0.4675324675324675
aF0.2857142857142857
aF0.24675324675324675
aa(lp385
F0.4
aF0.3
aF0.3
aa(lp386
F0.38461538461538464
aF0.2
aF0.4153846153846154
aa(lp387
F0.6666666666666666
aF0.15384615384615385
aF0.1794871794871795
aa(lp388
F0.6973684210526315
aF0.2236842105263158
aF0.07894736842105263
aa(lp389
F0.7262479871175523
aF0.178743961352657
aF0.09500805152979067
aa(lp390
F0.5872093023255814
aF0.29069767441860467
aF0.12209302325581395
aa(lp391
F0.632
aF0.352
aF0.016
aa(lp392
F0.37735849056603776
aF0.5283018867924528
aF0.09433962264150944
aa(lp393
F0.2222222222222222
aF0.4166666666666667
aF0.3611111111111111
aa(lp394
F0.36231884057971014
aF0.4927536231884058
aF0.14492753623188406
aa(lp395
F0.7097505668934241
aF0.22448979591836735
aF0.06575963718820861
aa(lp396
F0.49019607843137253
aF0.3333333333333333
aF0.17647058823529413
aa(lp397
F0.7096774193548387
aF0.16129032258064516
aF0.12903225806451613
aa(lp398
F0.6074766355140186
aF0.308411214953271
aF0.08411214953271028
aa(lp399
F0.5280898876404494
aF0.3707865168539326
aF0.10112359550561797
aa(lp400
F0.43915343915343913
aF0.42328042328042326
aF0.13756613756613756
aa(lp401
F0.5922330097087378
aF0.1650485436893204
aF0.24271844660194175
aa(lp402
F0.6276803118908382
aF0.26900584795321636
aF0.10331384015594541
aa(lp403
F0.13896457765667575
aF0.7411444141689373
aF0.11989100817438691
aa(lp404
F0.6271186440677966
aF0.16101694915254236
aF0.211864406779661
aa(lp405
F0.4383561643835616
aF0.4931506849315068
aF0.0684931506849315
aa(lp406
F0.7052631578947368
aF0.23157894736842105
aF0.06315789473684211
aa(lp407
F0.2323943661971831
aF0.5422535211267606
aF0.22535211267605634
aa(lp408
F0.48936170212765956
aF0.3191489361702128
aF0.19148936170212766
aa(lp409
F0.5428571428571428
aF0.2
aF0.2571428571428571
aa(lp410
F0.5128205128205128
aF0.358974358974359
aF0.1282051282051282
aa(lp411
F0.5866666666666667
aF0.28
aF0.13333333333333333
aa(lp412
F0.2635135135135135
aF0.6891891891891891
aF0.0472972972972973
aa(lp413
F0.6428571428571429
aF0.25
aF0.10714285714285714
aa(lp414
F0.3939393939393939
aF0.45454545454545453
aF0.15151515151515152
aa(lp415
F0.7222222222222222
aF0.15873015873015872
aF0.11904761904761904
aa(lp416
F0.4628099173553719
aF0.2809917355371901
aF0.256198347107438
aa(lp417
F0.7130434782608696
aF0.2
aF0.08695652173913043
aa(lp418
F0.5977011494252874
aF0.3103448275862069
aF0.09195402298850575
aa(lp419
F0.6151898734177215
aF0.2911392405063291
aF0.09367088607594937
aa(lp420
F0.3
aF0.3333333333333333
aF0.36666666666666664
aa(lp421
F0.41975308641975306
aF0.3004115226337449
aF0.27983539094650206
aa(lp422
F0.6848484848484848
aF0.2
aF0.11515151515151516
aa(lp423
F0.6923076923076923
aF0.15384615384615385
aF0.15384615384615385
aa(lp424
F0.4090909090909091
aF0.5
aF0.09090909090909091
aa(lp425
F0.22167487684729065
aF0.6699507389162561
aF0.10837438423645321
aa(lp426
F0.5434782608695652
aF0.30434782608695654
aF0.15217391304347827
aa(lp427
F0.398989898989899
aF0.5
aF0.10101010101010101
aa(lp428
F0.3898305084745763
aF0.423728813559322
aF0.1864406779661017
aa(lp429
F0.573170731707317
aF0.2804878048780488
aF0.14634146341463414
aa(lp430
F0.6263736263736264
aF0.2087912087912088
aF0.16483516483516483
aa(lp431
F0.5157894736842106
aF0.35789473684210527
aF0.12631578947368421
aa(lp432
F0.45588235294117646
aF0.3088235294117647
aF0.23529411764705882
aa(lp433
F0.5308641975308642
aF0.2839506172839506
aF0.18518518518518517
aa(lp434
F0.2619047619047619
aF0.3412698412698413
aF0.3968253968253968
aa(lp435
F0.7078651685393258
aF0.2247191011235955
aF0.06741573033707865
aa(lp436
F0.32786885245901637
aF0.26229508196721313
aF0.4098360655737705
aa(lp437
F0.5767790262172284
aF0.36329588014981273
aF0.0599250936329588
aa(lp438
F0.4230769230769231
aF0.36538461538461536
aF0.21153846153846154
aa(lp439
F0.5942028985507246
aF0.2608695652173913
aF0.14492753623188406
aa(lp440
F0.40229885057471265
aF0.45977011494252873
aF0.13793103448275862
aa(lp441
F0.4696969696969697
aF0.4292929292929293
aF0.10101010101010101
aa(lp442
F0.16235632183908047
aF0.8189655172413793
aF0.01867816091954023
aa(lp443
F0.47435897435897434
aF0.42948717948717946
aF0.09615384615384616
aa(lp444
F0.6225165562913907
aF0.304635761589404
aF0.0728476821192053
aa(lp445
F0.5
aF0.4
aF0.1
aa(lp446
F0.46774193548387094
aF0.25806451612903225
aF0.27419354838709675
aa(lp447
F0.5849056603773585
aF0.20754716981132076
aF0.20754716981132076
aa(lp448
F0.609271523178808
aF0.26490066225165565
aF0.12582781456953643
aa(lp449
F0.680672268907563
aF0.20168067226890757
aF0.11764705882352941
aa(lp450
F0.3055555555555556
aF0.5555555555555556
aF0.1388888888888889
aa(lp451
F0.5964912280701754
aF0.2982456140350877
aF0.10526315789473684
aa(lp452
F0.48502994011976047
aF0.4311377245508982
aF0.08383233532934131
aa(lp453
F0.5142857142857142
aF0.34285714285714286
aF0.14285714285714285
aa(lp454
F0.2
aF0.746551724137931
aF0.05344827586206897
aa(lp455
F0.4
aF0.36
aF0.24
aa(lp456
F0.34285714285714286
aF0.6071428571428571
aF0.05
aa(lp457
F0.10179640718562874
aF0.8308383233532934
aF0.06736526946107785
aa(lp458
F0.5227272727272727
aF0.42045454545454547
aF0.056818181818181816
aa(lp459
F0.4409448818897638
aF0.3228346456692913
aF0.23622047244094488
aa(lp460
F0.36
aF0.44
aF0.2
aa(lp461
F0.4365079365079365
aF0.30952380952380953
aF0.25396825396825395
aa(lp462
F0.3939393939393939
aF0.09090909090909091
aF0.5151515151515151
aa(lp463
F0.38571428571428573
aF0.5571428571428572
aF0.05714285714285714
aa(lp464
F0.6614349775784754
aF0.24887892376681614
aF0.08968609865470852
aa(lp465
F0.5529801324503312
aF0.3973509933774834
aF0.04966887417218543
aa(lp466
F0.6082474226804123
aF0.10309278350515463
aF0.28865979381443296
aa(lp467
F0.5222551928783383
aF0.3887240356083086
aF0.08902077151335312
aa(lp468
F0.23076923076923078
aF0.2692307692307692
aF0.5
aa(lp469
F0.5606060606060606
aF0.2727272727272727
aF0.16666666666666666
aa(lp470
F0.5367647058823529
aF0.4227941176470588
aF0.04044117647058824
aa(lp471
F0.7073170731707317
aF0.13414634146341464
aF0.15853658536585366
aa(lp472
F0.5094339622641509
aF0.37735849056603776
aF0.11320754716981132
aa(lp473
F0.36936936936936937
aF0.4864864864864865
aF0.14414414414414414
aa(lp474
F0.43137254901960786
aF0.29411764705882354
aF0.27450980392156865
aa(lp475
F0.4246575342465753
aF0.4657534246575342
aF0.1095890410958904
aa(lp476
F0.5780730897009967
aF0.3122923588039867
aF0.10963455149501661
aa(lp477
F0.41333333333333333
aF0.32
aF0.26666666666666666
aa(lp478
F0.5806451612903226
aF0.3225806451612903
aF0.0967741935483871
aa(lp479
F0.4492753623188406
aF0.15942028985507245
aF0.391304347826087
aa(lp480
F0.3511450381679389
aF0.6106870229007634
aF0.03816793893129771
aa(lp481
F0.5409836065573771
aF0.26229508196721313
aF0.19672131147540983
aa(lp482
F0.2962962962962963
aF0.3333333333333333
aF0.37037037037037035
aa(lp483
F0.28
aF0.28
aF0.44
aa(lp484
F0.5754716981132075
aF0.3584905660377358
aF0.0660377358490566
aa(lp485
F0.3441295546558704
aF0.611336032388664
aF0.044534412955465584
aa(lp486
F0.36727272727272725
aF0.48363636363636364
aF0.14909090909090908
aa(lp487
F0.4318181818181818
aF0.45454545454545453
aF0.11363636363636363
aa(lp488
F0.6829268292682927
aF0.07317073170731707
aF0.24390243902439024
aa(lp489
F0.44
aF0.24
aF0.32
aa(lp490
F0.5
aF0.26666666666666666
aF0.23333333333333334
aa(lp491
F0.5380434782608695
aF0.30434782608695654
aF0.15760869565217392
aa(lp492
F0.30158730158730157
aF0.6031746031746031
aF0.09523809523809523
aa(lp493
F0.4166666666666667
aF0.40625
aF0.17708333333333334
aa(lp494
F0.6428571428571429
aF0.23214285714285715
aF0.125
aa(lp495
F0.5052631578947369
aF0.20526315789473684
aF0.2894736842105263
aa(lp496
F0.4691358024691358
aF0.37037037037037035
aF0.16049382716049382
aa(lp497
F0.5873015873015873
aF0.2698412698412698
aF0.14285714285714285
aa(lp498
F0.013157894736842105
aF0.9572368421052632
aF0.029605263157894735
aa(lp499
F0.3826086956521739
aF0.5652173913043478
aF0.05217391304347826
aa(lp500
F0.5263157894736842
aF0.34210526315789475
aF0.13157894736842105
aa(lp501
F0.7050691244239631
aF0.15207373271889402
aF0.14285714285714285
aa(lp502
F0.6842105263157895
aF0.11578947368421053
aF0.2
aa(lp503
F0.5619834710743802
aF0.3140495867768595
aF0.12396694214876033
aa(lp504
F0.5333333333333333
aF0.29523809523809524
aF0.17142857142857143
aa(lp505
F0.4823529411764706
aF0.3764705882352941
aF0.1411764705882353
aa(lp506
F0.5769230769230769
aF0.38461538461538464
aF0.038461538461538464
aa(lp507
F0.5
aF0.3333333333333333
aF0.16666666666666666
aa(lp508
F0.6336633663366337
aF0.2871287128712871
aF0.07920792079207921
aa(lp509
F0.4479166666666667
aF0.4375
aF0.11458333333333333
aa(lp510
F0.5584415584415584
aF0.2597402597402597
aF0.18181818181818182
aa(lp511
F0.44329896907216493
aF0.31958762886597936
aF0.23711340206185566
aa(lp512
F0.39215686274509803
aF0.19607843137254902
aF0.4117647058823529
aa(lp513
F0.3979591836734694
aF0.5204081632653061
aF0.08163265306122448
aa(lp514
F0.6181818181818182
aF0.2909090909090909
aF0.09090909090909091
aa(lp515
F0.4375
aF0.46875
aF0.09375
aa(lp516
F0.5
aF0.4019607843137255
aF0.09803921568627451
aa(lp517
F0.37735849056603776
aF0.32075471698113206
aF0.3018867924528302
aa(lp518
F0.5054945054945055
aF0.23076923076923078
aF0.26373626373626374
aa(lp519
F0.38461538461538464
aF0.34615384615384615
aF0.2692307692307692
aa(lp520
F0.6023166023166023
aF0.23938223938223938
aF0.1583011583011583
aa(lp521
F0.039711191335740074
aF0.927797833935018
aF0.032490974729241874
aa(lp522
F0.5490196078431373
aF0.37254901960784315
aF0.0784313725490196
aa(lp523
F0.7384615384615385
aF0.15384615384615385
aF0.1076923076923077
aa(lp524
F0.45652173913043476
aF0.43478260869565216
aF0.10869565217391304
aa(lp525
F0.1826625386996904
aF0.781733746130031
aF0.03560371517027864
aa(lp526
F0.6503067484662577
aF0.2822085889570552
aF0.06748466257668712
aa(lp527
F0.6736401673640168
aF0.16736401673640167
aF0.1589958158995816
aa(lp528
F0.34065934065934067
aF0.5934065934065934
aF0.06593406593406594
aa(lp529
F0.5673076923076923
aF0.30448717948717946
aF0.1282051282051282
aa(lp530
F0.47752808988764045
aF0.34269662921348315
aF0.1797752808988764
aa(lp531
F0.3873239436619718
aF0.45774647887323944
aF0.15492957746478872
aa(lp532
F0.1125
aF0.5
aF0.3875
aa(lp533
F0.6174242424242424
aF0.3428030303030303
aF0.03977272727272727
aa(lp534
F0.574468085106383
aF0.2127659574468085
aF0.2127659574468085
aa(lp535
F0.35294117647058826
aF0.46078431372549017
aF0.18627450980392157
aa(lp536
F0.4827586206896552
aF0.3103448275862069
aF0.20689655172413793
aa(lp537
F0.6830357142857143
aF0.14732142857142858
aF0.16964285714285715
aa(lp538
F0.7504621072088724
aF0.13493530499075784
aF0.11460258780036968
aa(lp539
F0.3770491803278688
aF0.4016393442622951
aF0.22131147540983606
aa(lp540
F0.4807692307692308
aF0.4182692307692308
aF0.10096153846153846
aa(lp541
F0.43103448275862066
aF0.3793103448275862
aF0.1896551724137931
aa(lp542
F0.46638655462184875
aF0.453781512605042
aF0.07983193277310924
aa(lp543
F0.5550239234449761
aF0.24401913875598086
aF0.20095693779904306
aa(lp544
F0.5333333333333333
aF0.37142857142857144
aF0.09523809523809523
aa(lp545
F0.38461538461538464
aF0.3269230769230769
aF0.28846153846153844
aa(lp546
F0.38095238095238093
aF0.3492063492063492
aF0.2698412698412698
aa(lp547
F0.569060773480663
aF0.40331491712707185
aF0.027624309392265192
aa(lp548
F0.5106382978723404
aF0.2765957446808511
aF0.2127659574468085
aa(lp549
F0.4358974358974359
aF0.41025641025641024
aF0.15384615384615385
aa(lp550
F0.39490445859872614
aF0.2611464968152866
aF0.34394904458598724
aa(lp551
F0.44776119402985076
aF0.47761194029850745
aF0.07462686567164178
aa(lp552
F0.4717741935483871
aF0.42338709677419356
aF0.10483870967741936
aa(lp553
F0.3105590062111801
aF0.6490683229813664
aF0.040372670807453416
aa(lp554
F0.625
aF0.23529411764705882
aF0.13970588235294118
aa(lp555
F0.6073298429319371
aF0.3507853403141361
aF0.041884816753926704
aa(lp556
F0.4583333333333333
aF0.1875
aF0.3541666666666667
aa(lp557
F0.5247524752475248
aF0.2871287128712871
aF0.18811881188118812
aa(lp558
F0.7246376811594203
aF0.2753623188405797
aF0.0
aa(lp559
F0.425531914893617
aF0.425531914893617
aF0.14893617021276595
aa(lp560
F0.5486725663716814
aF0.25663716814159293
aF0.19469026548672566
aa(lp561
F0.5135135135135135
aF0.3153153153153153
aF0.17117117117117117
aa(lp562
F0.2647058823529412
aF0.6029411764705882
aF0.1323529411764706
aa(lp563
F0.5652173913043478
aF0.2753623188405797
aF0.15942028985507245
aa(lp564
F0.6
aF0.3225806451612903
aF0.07741935483870968
aa(lp565
F0.6206896551724138
aF0.19827586206896552
aF0.1810344827586207
aa(lp566
F0.6153846153846154
aF0.20512820512820512
aF0.1794871794871795
aa(lp567
F0.5192307692307693
aF0.34615384615384615
aF0.1346153846153846
aa(lp568
F0.7124463519313304
aF0.2017167381974249
aF0.08583690987124463
aa(lp569
F0.65625
aF0.3229166666666667
aF0.020833333333333332
aa(lp570
F0.5421245421245421
aF0.38461538461538464
aF0.07326007326007326
aa(lp571
F0.39622641509433965
aF0.4339622641509434
aF0.16981132075471697
aa(lp572
F0.3076923076923077
aF0.3076923076923077
aF0.38461538461538464
aa(lp573
F0.5
aF0.40476190476190477
aF0.09523809523809523
aa(lp574
F0.43902439024390244
aF0.24390243902439024
aF0.3170731707317073
aa(lp575
F0.5909090909090909
aF0.36363636363636365
aF0.045454545454545456
aa(lp576
F0.47368421052631576
aF0.29605263157894735
aF0.23026315789473684
aa(lp577
F0.26972477064220185
aF0.6201834862385321
aF0.11009174311926606
aa(lp578
F0.5691056910569106
aF0.35772357723577236
aF0.07317073170731707
aa(lp579
F0.4225352112676056
aF0.15492957746478872
aF0.4225352112676056
aa(lp580
F0.616
aF0.312
aF0.072
aa(lp581
F0.7142857142857143
aF0.1794871794871795
aF0.10622710622710622
aa(lp582
F0.5142857142857142
aF0.2523809523809524
aF0.23333333333333334
aa(lp583
F0.6349206349206349
aF0.2619047619047619
aF0.10317460317460317
aa(lp584
F0.7314814814814815
aF0.08333333333333333
aF0.18518518518518517
aa(lp585
F0.3813559322033898
aF0.3813559322033898
aF0.23728813559322035
aa(lp586
F0.5725190839694656
aF0.33587786259541985
aF0.0916030534351145
aa(lp587
F0.4222222222222222
aF0.3111111111111111
aF0.26666666666666666
aa(lp588
F0.4870689655172414
aF0.2672413793103448
aF0.24568965517241378
aa(lp589
F0.6326530612244898
aF0.16909620991253643
aF0.19825072886297376
aa(lp590
F0.5034965034965035
aF0.25874125874125875
aF0.23776223776223776
aa(lp591
F0.5666666666666667
aF0.06666666666666667
aF0.36666666666666664
aa(lp592
F0.5411255411255411
aF0.4069264069264069
aF0.05194805194805195
aa(lp593
F0.5844155844155844
aF0.19480519480519481
aF0.22077922077922077
aa(lp594
F0.4810126582278481
aF0.47468354430379744
aF0.04430379746835443
aa(lp595
F0.488
aF0.44
aF0.072
aa(lp596
F0.38181818181818183
aF0.4
aF0.21818181818181817
aa(lp597
F0.75
aF0.11956521739130435
aF0.13043478260869565
aa(lp598
F0.376
aF0.512
aF0.112
aa(lp599
F0.4857142857142857
aF0.4
aF0.11428571428571428
aa(lp600
F0.4634146341463415
aF0.3780487804878049
aF0.15853658536585366
aa(lp601
F0.08196721311475409
aF0.860655737704918
aF0.05737704918032787
aa(lp602
F0.5910931174089069
aF0.22267206477732793
aF0.1862348178137652
aa(lp603
F0.3901098901098901
aF0.554945054945055
aF0.054945054945054944
aa(lp604
F0.28125
aF0.515625
aF0.203125
aa(lp605
F0.1901840490797546
aF0.6748466257668712
aF0.13496932515337423
aa(lp606
F0.6174496644295302
aF0.28859060402684567
aF0.09395973154362416
aa(lp607
F0.19318181818181818
aF0.7159090909090909
aF0.09090909090909091
aa(lp608
F0.39655172413793105
aF0.5
aF0.10344827586206896
aa(lp609
F0.3548387096774194
aF0.5913978494623656
aF0.053763440860215055
aa(lp610
F0.51
aF0.35
aF0.14
aa(lp611
F0.13043478260869565
aF0.7304347826086957
aF0.1391304347826087
aa(lp612
F0.0037907505686125853
aF0.9924184988627748
aF0.0037907505686125853
aa(lp613
F0.256198347107438
aF0.6363636363636364
aF0.10743801652892562
aa(lp614
F0.0851063829787234
aF0.7021276595744681
aF0.2127659574468085
aa(lp615
F0.5165562913907285
aF0.33774834437086093
aF0.1456953642384106
aa(lp616
F0.5224719101123596
aF0.2808988764044944
aF0.19662921348314608
aa(lp617
F0.5286624203821656
aF0.3503184713375796
aF0.12101910828025478
aa(lp618
F0.01195219123505976
aF0.9601593625498008
aF0.027888446215139442
aa(lp619
F0.45454545454545453
aF0.494949494949495
aF0.050505050505050504
aa(lp620
F0.27884615384615385
aF0.6057692307692307
aF0.11538461538461539
aa(lp621
F0.5208333333333334
aF0.3541666666666667
aF0.125
aa(lp622
F0.44221105527638194
aF0.4623115577889447
aF0.09547738693467336
aa(lp623
F0.5
aF0.34459459459459457
aF0.1554054054054054
aa(lp624
F0.4846153846153846
aF0.46923076923076923
aF0.046153846153846156
aa(lp625
F0.1791907514450867
aF0.7283236994219653
aF0.09248554913294797
aa(lp626
F0.39814814814814814
aF0.5061728395061729
aF0.09567901234567901
aa(lp627
F0.02
aF0.975
aF0.005
aa(lp628
F0.006825938566552901
aF0.9488054607508533
aF0.04436860068259386
aa(lp629
F0.3584905660377358
aF0.37735849056603776
aF0.2641509433962264
aa(lp630
F0.2627118644067797
aF0.5
aF0.23728813559322035
aa(lp631
F0.3270440251572327
aF0.5534591194968553
aF0.11949685534591195
aa(lp632
F0.42045454545454547
aF0.45454545454545453
aF0.125
aa(lp633
F0.04519774011299435
aF0.8870056497175142
aF0.06779661016949153
aa(lp634
F0.17647058823529413
aF0.5
aF0.3235294117647059
aa(lp635
F0.02912621359223301
aF0.9514563106796117
aF0.019417475728155338
aa(lp636
F0.46236559139784944
aF0.44086021505376344
aF0.0967741935483871
aa(lp637
F0.4393939393939394
aF0.2878787878787879
aF0.2727272727272727
aa(lp638
F0.3235294117647059
aF0.4117647058823529
aF0.2647058823529412
aa(lp639
F0.524390243902439
aF0.2804878048780488
aF0.1951219512195122
aa(lp640
F0.45161290322580644
aF0.4731182795698925
aF0.07526881720430108
aa(lp641
F0.3888888888888889
aF0.4351851851851852
aF0.17592592592592593
aa(lp642
F0.23333333333333334
aF0.675
aF0.09166666666666666
aa(lp643
F0.029896907216494847
aF0.9551546391752578
aF0.014948453608247423
aa(lp644
F0.43902439024390244
aF0.4146341463414634
aF0.14634146341463414
aa(lp645
F0.4142857142857143
aF0.5071428571428571
aF0.07857142857142857
aa(lp646
F0.4166666666666667
aF0.45
aF0.13333333333333333
aa(lp647
F0.3557692307692308
aF0.375
aF0.2692307692307692
aa(lp648
F0.4126984126984127
aF0.49206349206349204
aF0.09523809523809523
aa(lp649
F0.35294117647058826
aF0.5294117647058824
aF0.11764705882352941
aa(lp650
F0.37937743190661477
aF0.5155642023346303
aF0.10505836575875487
aa(lp651
F0.34545454545454546
aF0.45454545454545453
aF0.2
aa(lp652
F0.3111111111111111
aF0.4888888888888889
aF0.2
aa(lp653
F0.3717948717948718
aF0.3717948717948718
aF0.2564102564102564
aa(lp654
F0.21518987341772153
aF0.6645569620253164
aF0.12025316455696203
aa(lp655
F0.3333333333333333
aF0.5614035087719298
aF0.10526315789473684
aa(lp656
F0.4838709677419355
aF0.3978494623655914
aF0.11827956989247312
aa(lp657
F0.5151515151515151
aF0.42424242424242425
aF0.06060606060606061
aa(lp658
F0.3333333333333333
aF0.5888888888888889
aF0.07777777777777778
aa(lp659
F0.40425531914893614
aF0.5
aF0.09574468085106383
aa(lp660
F0.36681222707423583
aF0.4890829694323144
aF0.14410480349344978
aa(lp661
F0.008287292817679558
aF0.93646408839779
aF0.055248618784530384
aa(lp662
F0.4838709677419355
aF0.5161290322580645
aF0.0
aa(lp663
F0.48360655737704916
aF0.4262295081967213
aF0.09016393442622951
aa(lp664
F0.16494845360824742
aF0.7628865979381443
aF0.07216494845360824
aa(lp665
F0.23853211009174313
aF0.6880733944954128
aF0.07339449541284404
aa(lp666
F0.3548387096774194
aF0.5161290322580645
aF0.12903225806451613
aa(lp667
F0.6422018348623854
aF0.25688073394495414
aF0.10091743119266056
aa(lp668
F0.3181818181818182
aF0.45454545454545453
aF0.22727272727272727
aa(lp669
F0.3705179282868526
aF0.5816733067729084
aF0.04780876494023904
aa(lp670
F0.0045351473922902496
aF0.9750566893424036
aF0.02040816326530612
aa(lp671
F0.015397775876817793
aF0.9760479041916168
aF0.00855431993156544
aa(lp672
F0.35135135135135137
aF0.6054054054054054
aF0.043243243243243246
aa(lp673
F0.42323651452282157
aF0.5394190871369294
aF0.03734439834024896
aa(lp674
F0.19753086419753085
aF0.6790123456790124
aF0.12345679012345678
aa(lp675
F0.22641509433962265
aF0.6792452830188679
aF0.09433962264150944
aa(lp676
F0.25
aF0.5333333333333333
aF0.21666666666666667
aa(lp677
F0.2391304347826087
aF0.6521739130434783
aF0.10869565217391304
aa(lp678
F0.3150684931506849
aF0.6027397260273972
aF0.0821917808219178
aa(lp679
F0.27450980392156865
aF0.5392156862745098
aF0.18627450980392157
aa(lp680
F0.36477987421383645
aF0.5566037735849056
aF0.07861635220125786
aa(lp681
F0.3893805309734513
aF0.5162241887905604
aF0.0943952802359882
aa(lp682
F0.3656716417910448
aF0.5373134328358209
aF0.09701492537313433
aa(lp683
F0.1956521739130435
aF0.7391304347826086
aF0.06521739130434782
aa(lp684
F0.26334519572953735
aF0.6227758007117438
aF0.11387900355871886
aa(lp685
F0.3184713375796178
aF0.5987261146496815
aF0.08280254777070063
aa(lp686
F0.0
aF1.0
aF0.0
aa(lp687
F0.46153846153846156
aF0.44871794871794873
aF0.08974358974358974
aa(lp688
F0.5740740740740741
aF0.2777777777777778
aF0.14814814814814814
aa(lp689
F0.421875
aF0.4375
aF0.140625
aa(lp690
F0.0035842293906810036
aF0.985663082437276
aF0.010752688172043012
aa(lp691
F0.32786885245901637
aF0.5409836065573771
aF0.13114754098360656
aa(lp692
F0.4340659340659341
aF0.489010989010989
aF0.07692307692307693
aa(lp693
F0.3770491803278688
aF0.5027322404371585
aF0.12021857923497267
aa(lp694
F0.5048543689320388
aF0.4368932038834951
aF0.05825242718446602
aa(lp695
F0.2549019607843137
aF0.35294117647058826
aF0.39215686274509803
aa(lp696
F0.375
aF0.55
aF0.075
aa(lp697
F0.424
aF0.52
aF0.056
aa(lp698
F0.29213483146067415
aF0.5730337078651685
aF0.1348314606741573
aa(lp699
F0.43478260869565216
aF0.45962732919254656
aF0.10559006211180125
aa(lp700
F0.1125
aF0.875
aF0.0125
aa(lp701
F0.3103448275862069
aF0.5747126436781609
aF0.11494252873563218
aa(lp702
F0.27058823529411763
aF0.6823529411764706
aF0.047058823529411764
aa(lp703
F0.20930232558139536
aF0.7325581395348837
aF0.05813953488372093
aa(lp704
F0.3251231527093596
aF0.5320197044334976
aF0.14285714285714285
aa(lp705
F0.40476190476190477
aF0.5047619047619047
aF0.09047619047619047
aa(lp706
F0.38095238095238093
aF0.32142857142857145
aF0.2976190476190476
aa(lp707
F0.1686746987951807
aF0.6987951807228916
aF0.13253012048192772
aa(lp708
F0.4936708860759494
aF0.379746835443038
aF0.12658227848101267
aa(lp709
F0.4375
aF0.53125
aF0.03125
aa(lp710
F0.050505050505050504
aF0.898989898989899
aF0.050505050505050504
aa(lp711
F0.5153846153846153
aF0.4230769230769231
aF0.06153846153846154
aa(lp712
F0.5416666666666666
aF0.3630952380952381
aF0.09523809523809523
aa(lp713
F0.3697478991596639
aF0.35294117647058826
aF0.2773109243697479
aa(lp714
F0.2976190476190476
aF0.6130952380952381
aF0.08928571428571429
aa(lp715
F0.5350877192982456
aF0.2894736842105263
aF0.17543859649122806
aa(lp716
F0.14096916299559473
aF0.762114537444934
aF0.09691629955947137
aa(lp717
F0.25225225225225223
aF0.6576576576576577
aF0.09009009009009009
aa(lp718
F0.36923076923076925
aF0.4307692307692308
aF0.2
aa(lp719
F0.47368421052631576
aF0.42105263157894735
aF0.10526315789473684
aa(lp720
F0.3333333333333333
aF0.5119047619047619
aF0.15476190476190477
aa(lp721
F0.3902439024390244
aF0.36585365853658536
aF0.24390243902439024
aa(lp722
F0.6447368421052632
aF0.2675438596491228
aF0.08771929824561403
aa(lp723
F0.030013642564802184
aF0.9338335607094134
aF0.03615279672578445
aa(lp724
F0.2702702702702703
aF0.44594594594594594
aF0.28378378378378377
aa(lp725
F0.42105263157894735
aF0.39473684210526316
aF0.18421052631578946
aa(lp726
F0.3333333333333333
aF0.6025641025641025
aF0.0641025641025641
aa(lp727
F0.12962962962962962
aF0.8055555555555556
aF0.06481481481481481
aa(lp728
F0.4175824175824176
aF0.5164835164835165
aF0.06593406593406594
aa(lp729
F0.5
aF0.47297297297297297
aF0.02702702702702703
aa(lp730
F0.7178217821782178
aF0.19306930693069307
aF0.0891089108910891
aa(lp731
F0.6172839506172839
aF0.19753086419753085
aF0.18518518518518517
aa(lp732
F0.24836601307189543
aF0.6993464052287581
aF0.05228758169934641
aa(lp733
F0.16666666666666666
aF0.21428571428571427
aF0.6190476190476191
aa(lp734
F0.40860215053763443
aF0.43010752688172044
aF0.16129032258064516
aa(lp735
F0.22900763358778625
aF0.5572519083969466
aF0.21374045801526717
aa(lp736
F0.29896907216494845
aF0.4742268041237113
aF0.2268041237113402
aa(lp737
F0.0016806722689075631
aF0.9966386554621849
aF0.0016806722689075631
aa(lp738
F0.4128686327077748
aF0.5227882037533512
aF0.064343163538874
aa(lp739
F0.6120689655172413
aF0.31896551724137934
aF0.06896551724137931
aa(lp740
F0.20476190476190476
aF0.4666666666666667
aF0.32857142857142857
aa(lp741
F0.44
aF0.4
aF0.16
aa(lp742
F0.34782608695652173
aF0.5072463768115942
aF0.14492753623188406
aa(lp743
F0.2717948717948718
aF0.6461538461538462
aF0.08205128205128205
aa(lp744
F0.45
aF0.25
aF0.3
aa(lp745
F0.3745583038869258
aF0.4876325088339223
aF0.13780918727915195
aa(lp746
F0.2647058823529412
aF0.5
aF0.23529411764705882
aa(lp747
F0.271889400921659
aF0.5483870967741935
aF0.17972350230414746
aa(lp748
F0.3412698412698413
aF0.5952380952380952
aF0.06349206349206349
aa(lp749
F0.5287356321839081
aF0.3448275862068966
aF0.12643678160919541
aa(lp750
F0.2545454545454545
aF0.5636363636363636
aF0.18181818181818182
aa(lp751
F0.4954954954954955
aF0.40540540540540543
aF0.0990990990990991
aa(lp752
F0.37168141592920356
aF0.4690265486725664
aF0.1592920353982301
aa(lp753
F0.37254901960784315
aF0.4117647058823529
aF0.21568627450980393
aa(lp754
F0.30952380952380953
aF0.5571428571428572
aF0.13333333333333333
aa(lp755
F0.44176706827309237
aF0.5341365461847389
aF0.024096385542168676
aa(lp756
F0.5673469387755102
aF0.2163265306122449
aF0.2163265306122449
aa(lp757
F0.4642857142857143
aF0.4642857142857143
aF0.07142857142857142
aa(lp758
F0.5245901639344263
aF0.36065573770491804
aF0.11475409836065574
aa(lp759
F0.3176470588235294
aF0.43529411764705883
aF0.24705882352941178
aa(lp760
F0.4838709677419355
aF0.3387096774193548
aF0.1774193548387097
aa(lp761
F0.36764705882352944
aF0.3235294117647059
aF0.3088235294117647
aa(lp762
F0.3208955223880597
aF0.6268656716417911
aF0.05223880597014925
aa(lp763
F0.5
aF0.4074074074074074
aF0.09259259259259259
aa(lp764
F0.42452830188679247
aF0.46226415094339623
aF0.11320754716981132
aa(lp765
F0.2916666666666667
aF0.6354166666666666
aF0.07291666666666667
aa(lp766
F0.47368421052631576
aF0.42105263157894735
aF0.10526315789473684
aa(lp767
F0.45
aF0.4
aF0.15
aa(lp768
F0.45925925925925926
aF0.45185185185185184
aF0.08888888888888889
aa(lp769
F0.4444444444444444
aF0.41414141414141414
aF0.1414141414141414
aa(lp770
F0.1527777777777778
aF0.8055555555555556
aF0.041666666666666664
aa(lp771
F0.3779527559055118
aF0.47244094488188976
aF0.14960629921259844
aa(lp772
F0.40476190476190477
aF0.5
aF0.09523809523809523
aa(lp773
F0.42786069651741293
aF0.47761194029850745
aF0.0945273631840796
aa(lp774
F0.448
aF0.4
aF0.152
aa(lp775
F0.0
aF0.9969879518072289
aF0.0030120481927710845
aa(lp776
F0.3275862068965517
aF0.27586206896551724
aF0.39655172413793105
aa(lp777
F0.23529411764705882
aF0.6470588235294118
aF0.11764705882352941
aa(lp778
F0.43157894736842106
aF0.29473684210526313
aF0.2736842105263158
aa(lp779
F0.2403846153846154
aF0.6153846153846154
aF0.14423076923076922
aa(lp780
F0.10948905109489052
aF0.8540145985401459
aF0.0364963503649635
aa(lp781
F0.3958333333333333
aF0.4791666666666667
aF0.125
aa(lp782
F0.4811320754716981
aF0.4386792452830189
aF0.08018867924528301
aa(lp783
F0.20155038759689922
aF0.6666666666666666
aF0.13178294573643412
aa(lp784
F0.41025641025641024
aF0.5384615384615384
aF0.05128205128205128
aa(lp785
F0.3442622950819672
aF0.6229508196721312
aF0.03278688524590164
aa(lp786
F0.2621359223300971
aF0.4563106796116505
aF0.2815533980582524
aa(lp787
F0.2828282828282828
aF0.6565656565656566
aF0.06060606060606061
aa(lp788
F0.41237113402061853
aF0.32989690721649484
aF0.25773195876288657
aa(lp789
F0.4918032786885246
aF0.36065573770491804
aF0.14754098360655737
aa(lp790
F0.004989308624376337
aF0.9843193157519601
aF0.010691375623663579
aa(lp791
F0.2573099415204678
aF0.6140350877192983
aF0.1286549707602339
aa(lp792
F0.5126353790613718
aF0.3971119133574007
aF0.09025270758122744
aa(lp793
F0.5108695652173914
aF0.2717391304347826
aF0.21739130434782608
aa(lp794
F0.007290400972053463
aF0.991494532199271
aF0.001215066828675577
aa(lp795
F0.4479166666666667
aF0.3958333333333333
aF0.15625
aa(lp796
F0.30864197530864196
aF0.6172839506172839
aF0.07407407407407407
aa(lp797
F0.36964980544747084
aF0.5817120622568094
aF0.048638132295719845
aa(lp798
F0.23958333333333334
aF0.5208333333333334
aF0.23958333333333334
aa(lp799
F0.24647887323943662
aF0.5985915492957746
aF0.15492957746478872
aa(lp800
F0.5038759689922481
aF0.40310077519379844
aF0.09302325581395349
aa(lp801
F0.41732283464566927
aF0.5118110236220472
aF0.07086614173228346
aa(lp802
F0.4772727272727273
aF0.3977272727272727
aF0.125
aa(lp803
F0.4700854700854701
aF0.41025641025641024
aF0.11965811965811966
aa(lp804
F0.3661417322834646
aF0.4409448818897638
aF0.19291338582677164
aa(lp805
F0.3157894736842105
aF0.42105263157894735
aF0.2631578947368421
aa(lp806
F0.3230769230769231
aF0.5307692307692308
aF0.14615384615384616
aa(lp807
F0.5714285714285714
aF0.23529411764705882
aF0.19327731092436976
aa(lp808
F0.13333333333333333
aF0.6833333333333333
aF0.18333333333333332
aa(lp809
F0.3727810650887574
aF0.5502958579881657
aF0.07692307692307693
aa(lp810
F0.05660377358490566
aF0.9150943396226415
aF0.02830188679245283
aa(lp811
F0.06595538312318137
aF0.8187439379243453
aF0.11530067895247333
aa(lp812
F0.39603960396039606
aF0.36633663366336633
aF0.2376237623762376
aa(lp813
F0.002274450341167551
aF0.9909021986353298
aF0.006823351023502654
aa(lp814
F0.4
aF0.5393939393939394
aF0.06060606060606061
aa(lp815
F0.35251798561151076
aF0.4748201438848921
aF0.17266187050359713
aa(lp816
F0.5621890547263682
aF0.35323383084577115
aF0.0845771144278607
aa(lp817
F0.6212121212121212
aF0.24458874458874458
aF0.1341991341991342
aa(lp818
F0.4489795918367347
aF0.45918367346938777
aF0.09183673469387756
aa(lp819
F0.2641509433962264
aF0.33962264150943394
aF0.39622641509433965
aa(lp820
F0.23684210526315788
aF0.42105263157894735
aF0.34210526315789475
aa(lp821
F0.3181818181818182
aF0.45454545454545453
aF0.22727272727272727
aa(lp822
F0.2631578947368421
aF0.5789473684210527
aF0.15789473684210525
aa(lp823
F0.4230769230769231
aF0.5384615384615384
aF0.038461538461538464
aa(lp824
F0.20181219110378912
aF0.7520593080724877
aF0.04612850082372323
aa(lp825
F0.5225225225225225
aF0.25225225225225223
aF0.22522522522522523
aa(lp826
F0.32978723404255317
aF0.5638297872340425
aF0.10638297872340426
aa(lp827
F0.5076923076923077
aF0.3076923076923077
aF0.18461538461538463
aa(lp828
F0.5507246376811594
aF0.36231884057971014
aF0.08695652173913043
aa(lp829
F0.38414634146341464
aF0.5182926829268293
aF0.0975609756097561
aa(lp830
F0.21739130434782608
aF0.6811594202898551
aF0.10144927536231885
aa(lp831
F0.4411764705882353
aF0.39705882352941174
aF0.16176470588235295
aa(lp832
F0.43283582089552236
aF0.4626865671641791
aF0.1044776119402985
aa(lp833
F0.34285714285714286
aF0.45714285714285713
aF0.2
aa(lp834
F0.3
aF0.5909090909090909
aF0.10909090909090909
aa(lp835
F0.43859649122807015
aF0.4853801169590643
aF0.07602339181286549
aa(lp836
F0.002044691105593691
aF0.9970790127062947
aF0.0008762961881115817
aa(lp837
F0.3382352941176471
aF0.39705882352941174
aF0.2647058823529412
aa(lp838
F0.4482758620689655
aF0.4367816091954023
aF0.11494252873563218
aa(lp839
F0.29375
aF0.63125
aF0.075
aa(lp840
F0.4251968503937008
aF0.3779527559055118
aF0.1968503937007874
aa(lp841
F0.63
aF0.24333333333333335
aF0.12666666666666668
aa(lp842
F0.4226044226044226
aF0.45454545454545453
aF0.12285012285012285
aa(lp843
F0.29780564263322884
aF0.46394984326018807
aF0.23824451410658307
aa(lp844
F0.35924932975871315
aF0.5737265415549598
aF0.06702412868632708
aa(lp845
F0.2558139534883721
aF0.6395348837209303
aF0.10465116279069768
aa(lp846
F0.4807692307692308
aF0.25
aF0.2692307692307692
aa(lp847
F0.3382352941176471
aF0.4264705882352941
aF0.23529411764705882
aa(lp848
F0.2777777777777778
aF0.5902777777777778
aF0.13194444444444445
aa(lp849
F0.3888888888888889
aF0.4
aF0.2111111111111111
aa(lp850
F0.37435897435897436
aF0.5641025641025641
aF0.06153846153846154
aa(lp851
F0.5393258426966292
aF0.30337078651685395
aF0.15730337078651685
aa(lp852
F0.36492890995260663
aF0.5213270142180095
aF0.11374407582938388
aa(lp853
F0.1794871794871795
aF0.46153846153846156
aF0.358974358974359
aa(lp854
F0.2853881278538813
aF0.634703196347032
aF0.07990867579908675
aa(lp855
F0.42718446601941745
aF0.47572815533980584
aF0.0970873786407767
aa(lp856
F0.5076923076923077
aF0.36923076923076925
aF0.12307692307692308
aa(lp857
F0.38922155688622756
aF0.5508982035928144
aF0.059880239520958084
aa(lp858
F0.45454545454545453
aF0.4659090909090909
aF0.07954545454545454
aa(lp859
F0.3484848484848485
aF0.5454545454545454
aF0.10606060606060606
aa(lp860
F0.36942675159235666
aF0.45222929936305734
aF0.17834394904458598
aa(lp861
F0.42105263157894735
aF0.47368421052631576
aF0.10526315789473684
aa(lp862
F0.15217391304347827
aF0.7391304347826086
aF0.10869565217391304
aa(lp863
F0.4015748031496063
aF0.49606299212598426
aF0.10236220472440945
aa(lp864
F0.38613861386138615
aF0.4752475247524752
aF0.13861386138613863
aa(lp865
F0.43283582089552236
aF0.40298507462686567
aF0.16417910447761194
aa(lp866
F0.10714285714285714
aF0.6071428571428571
aF0.2857142857142857
aa(lp867
F0.3561643835616438
aF0.3972602739726027
aF0.2465753424657534
aa(lp868
F0.33112582781456956
aF0.609271523178808
aF0.059602649006622516
aa(lp869
F0.39285714285714285
aF0.4880952380952381
aF0.11904761904761904
aa(lp870
F0.22722159730033745
aF0.7199100112485939
aF0.052868391451068614
aa(lp871
F0.30952380952380953
aF0.5952380952380952
aF0.09523809523809523
aa(lp872
F0.5048543689320388
aF0.4174757281553398
aF0.07766990291262135
aa(lp873
F0.6153846153846154
aF0.23076923076923078
aF0.15384615384615385
aa(lp874
F0.3645833333333333
aF0.5729166666666666
aF0.0625
aa(lp875
F0.3761467889908257
aF0.5351681957186545
aF0.08868501529051988
aa(lp876
F0.27941176470588236
aF0.47549019607843135
aF0.24509803921568626
aa(lp877
F0.49415204678362573
aF0.4473684210526316
aF0.05847953216374269
aa(lp878
F0.30357142857142855
aF0.5178571428571429
aF0.17857142857142858
aa(lp879
F0.32142857142857145
aF0.6428571428571429
aF0.03571428571428571
aa(lp880
F0.1588235294117647
aF0.6470588235294118
aF0.19411764705882353
aa(lp881
F0.3488372093023256
aF0.5116279069767442
aF0.13953488372093023
aa(lp882
F0.34285714285714286
aF0.5714285714285714
aF0.08571428571428572
aa(lp883
F0.27419354838709675
aF0.6129032258064516
aF0.11290322580645161
aa(lp884
F0.5
aF0.42857142857142855
aF0.07142857142857142
aa(lp885
F0.5
aF0.43902439024390244
aF0.06097560975609756
aa(lp886
F0.47126436781609193
aF0.367816091954023
aF0.16091954022988506
aa(lp887
F0.4657534246575342
aF0.3013698630136986
aF0.2328767123287671
aa(lp888
F0.37777777777777777
aF0.5111111111111111
aF0.1111111111111111
aa(lp889
F0.29411764705882354
aF0.4117647058823529
aF0.29411764705882354
aa(lp890
F0.45614035087719296
aF0.4824561403508772
aF0.06140350877192982
aa(lp891
F0.44571428571428573
aF0.4
aF0.15428571428571428
aa(lp892
F0.38596491228070173
aF0.5087719298245614
aF0.10526315789473684
aa(lp893
F0.08774583963691376
aF0.8789712556732224
aF0.03328290468986384
aa(lp894
F0.4327485380116959
aF0.4678362573099415
aF0.09941520467836257
aa(lp895
F0.2
aF0.7454545454545455
aF0.05454545454545454
aa(lp896
F0.49473684210526314
aF0.45789473684210524
aF0.04736842105263158
aa(lp897
F0.5053003533568905
aF0.3745583038869258
aF0.12014134275618374
aa(lp898
F0.37606837606837606
aF0.5299145299145299
aF0.09401709401709402
aa(lp899
F0.40594059405940597
aF0.504950495049505
aF0.0891089108910891
aa(lp900
F0.4320388349514563
aF0.4320388349514563
aF0.13592233009708737
aa(lp901
F0.005703422053231939
aF0.9923954372623575
aF0.0019011406844106464
aa(lp902
F0.4810810810810811
aF0.4540540540540541
aF0.06486486486486487
aa(lp903
F0.10077519379844961
aF0.8527131782945736
aF0.046511627906976744
aa(lp904
F0.21951219512195122
aF0.14634146341463414
aF0.6341463414634146
aa(lp905
F0.675
aF0.23125
aF0.09375
aa(lp906
F0.358974358974359
aF0.5
aF0.14102564102564102
aa(lp907
F0.3333333333333333
aF0.43859649122807015
aF0.22807017543859648
aa(lp908
F0.21621621621621623
aF0.5945945945945946
aF0.1891891891891892
aa(lp909
F0.4484848484848485
aF0.45454545454545453
aF0.09696969696969697
aa(lp910
F0.46411483253588515
aF0.4688995215311005
aF0.06698564593301436
aa(lp911
F0.4065934065934066
aF0.5274725274725275
aF0.06593406593406594
aa(lp912
F0.39097744360902253
aF0.2932330827067669
aF0.3157894736842105
aa(lp913
F0.30434782608695654
aF0.6086956521739131
aF0.08695652173913043
aa(lp914
F0.5918367346938775
aF0.2755102040816326
aF0.1326530612244898
aa(lp915
F0.2857142857142857
aF0.5584415584415584
aF0.15584415584415584
aa(lp916
F0.3548387096774194
aF0.532258064516129
aF0.11290322580645161
aa(lp917
F0.28013392857142855
aF0.6205357142857143
aF0.09933035714285714
aa(lp918
F0.15789473684210525
aF0.42105263157894735
aF0.42105263157894735
aa(lp919
F0.330188679245283
aF0.5377358490566038
aF0.1320754716981132
aa(lp920
F0.3103448275862069
aF0.5517241379310345
aF0.13793103448275862
aa(lp921
F0.5393258426966292
aF0.23595505617977527
aF0.2247191011235955
aa(lp922
F0.27802690582959644
aF0.6816143497757847
aF0.04035874439461883
aa(lp923
F0.0
aF0.99644128113879
aF0.0035587188612099642
aa(lp924
F0.38961038961038963
aF0.44155844155844154
aF0.16883116883116883
aa(lp925
F0.30935251798561153
aF0.5683453237410072
aF0.1223021582733813
aa(lp926
F0.5340909090909091
aF0.3409090909090909
aF0.125
aa(lp927
F0.6049382716049383
aF0.345679012345679
aF0.04938271604938271
aa(lp928
F0.3953488372093023
aF0.5116279069767442
aF0.09302325581395349
aa(lp929
F0.34615384615384615
aF0.5576923076923077
aF0.09615384615384616
aa(lp930
F0.31645569620253167
aF0.5569620253164557
aF0.12658227848101267
aa(lp931
F0.4077669902912621
aF0.5048543689320388
aF0.08737864077669903
aa(lp932
F0.39849624060150374
aF0.518796992481203
aF0.08270676691729323
aa(lp933
F0.6396396396396397
aF0.21621621621621623
aF0.14414414414414414
aa(lp934
F0.3791208791208791
aF0.47802197802197804
aF0.14285714285714285
aa(lp935
F0.2894736842105263
aF0.618421052631579
aF0.09210526315789473
aa(lp936
F0.41379310344827586
aF0.5586206896551724
aF0.027586206896551724
aa(lp937
F0.38095238095238093
aF0.4523809523809524
aF0.16666666666666666
aa(lp938
F0.5288461538461539
aF0.21153846153846154
aF0.25961538461538464
aa(lp939
F0.15267175572519084
aF0.7709923664122137
aF0.07633587786259542
aa(lp940
F0.136986301369863
aF0.684931506849315
aF0.1780821917808219
aa(lp941
F0.48214285714285715
aF0.44642857142857145
aF0.07142857142857142
aa(lp942
F0.46551724137931033
aF0.4224137931034483
aF0.11206896551724138
aa(lp943
F0.44166666666666665
aF0.48333333333333334
aF0.075
aa(lp944
F0.001040582726326743
aF0.9979188345473465
aF0.001040582726326743
aa(lp945
F0.5982142857142857
aF0.3125
aF0.08928571428571429
aa(lp946
F0.15027322404371585
aF0.8019125683060109
aF0.04781420765027322
aa(lp947
F0.38
aF0.5
aF0.12
aa(lp948
F0.29577464788732394
aF0.6056338028169014
aF0.09859154929577464
aa(lp949
F0.2948717948717949
aF0.5128205128205128
aF0.19230769230769232
aa(lp950
F0.3488372093023256
aF0.5658914728682171
aF0.08527131782945736
aa(lp951
F0.5609756097560976
aF0.35365853658536583
aF0.08536585365853659
aa(lp952
F0.5617977528089888
aF0.3258426966292135
aF0.11235955056179775
aa(lp953
F0.4126984126984127
aF0.47619047619047616
aF0.1111111111111111
aa(lp954
F0.19642857142857142
aF0.6785714285714286
aF0.125
aa(lp955
F0.13043478260869565
aF0.8173913043478261
aF0.05217391304347826
aa(lp956
F0.07434944237918216
aF0.79182156133829
aF0.13382899628252787
aa(lp957
F0.2147887323943662
aF0.7323943661971831
aF0.0528169014084507
aa(lp958
F0.308411214953271
aF0.5420560747663551
aF0.14953271028037382
aa(lp959
F0.4576271186440678
aF0.2711864406779661
aF0.2711864406779661
aa(lp960
F0.375
aF0.5454545454545454
aF0.07954545454545454
aa(lp961
F0.5
aF0.4024390243902439
aF0.0975609756097561
aa(lp962
F0.44545454545454544
aF0.4727272727272727
aF0.08181818181818182
aa(lp963
F0.3389121338912134
aF0.5188284518828452
aF0.14225941422594143
aa(lp964
F0.373134328358209
aF0.4925373134328358
aF0.13432835820895522
aa(lp965
F0.3974358974358974
aF0.5128205128205128
aF0.08974358974358974
aa(lp966
F0.4076923076923077
aF0.5230769230769231
aF0.06923076923076923
aa(lp967
F0.4678492239467849
aF0.44124168514412415
aF0.09090909090909091
aa(lp968
F0.22180451127819548
aF0.6804511278195489
aF0.09774436090225563
aa(lp969
F0.3422818791946309
aF0.5973154362416108
aF0.06040268456375839
aa(lp970
F0.0055248618784530384
aF0.9861878453038674
aF0.008287292817679558
aa(lp971
F0.22941176470588234
aF0.7411764705882353
aF0.029411764705882353
aa(lp972
F0.3373493975903614
aF0.4457831325301205
aF0.21686746987951808
aa(lp973
F0.5823529411764706
aF0.3196078431372549
aF0.09803921568627451
aa(lp974
F0.27492447129909364
aF0.6435045317220544
aF0.08157099697885196
aa(lp975
F0.47924528301886793
aF0.32075471698113206
aF0.2
aa(lp976
F0.38596491228070173
aF0.5350877192982456
aF0.07894736842105263
aa(lp977
F0.3548387096774194
aF0.5806451612903226
aF0.06451612903225806
aa(lp978
F0.10416666666666667
aF0.7708333333333334
aF0.125
aa(lp979
F0.14814814814814814
aF0.5555555555555556
aF0.2962962962962963
aa(lp980
F0.2893401015228426
aF0.5532994923857868
aF0.15736040609137056
aa(lp981
F0.2361111111111111
aF0.6041666666666666
aF0.1597222222222222
aa(lp982
F0.5401459854014599
aF0.3795620437956204
aF0.08029197080291971
aa(lp983
F0.4166666666666667
aF0.3333333333333333
aF0.25
aa(lp984
F0.09016393442622951
aF0.8442622950819673
aF0.06557377049180328
aa(lp985
F0.23711340206185566
aF0.5773195876288659
aF0.18556701030927836
aa(lp986
F0.3333333333333333
aF0.3047619047619048
aF0.3619047619047619
aa(lp987
F0.6380368098159509
aF0.3067484662576687
aF0.05521472392638037
aa(lp988
F0.25217391304347825
aF0.4956521739130435
aF0.25217391304347825
aa(lp989
F0.2517438173747622
aF0.6930881420418517
aF0.055168040583386174
aa(lp990
F0.26356589147286824
aF0.6589147286821705
aF0.07751937984496124
aa(lp991
F0.18705035971223022
aF0.7733812949640287
aF0.039568345323741004
aa(lp992
F0.38333333333333336
aF0.43333333333333335
aF0.18333333333333332
aa(lp993
F0.28695652173913044
aF0.4782608695652174
aF0.23478260869565218
aa(lp994
F0.2692307692307692
aF0.38461538461538464
aF0.34615384615384615
aa(lp995
F0.2833333333333333
aF0.5833333333333334
aF0.13333333333333333
aa(lp996
F0.5096774193548387
aF0.2967741935483871
aF0.1935483870967742
aa(lp997
F0.4262295081967213
aF0.47540983606557374
aF0.09836065573770492
aa(lp998
F0.5263157894736842
aF0.4331983805668016
aF0.04048582995951417
aa(lp999
F0.2857142857142857
aF0.6043956043956044
aF0.10989010989010989
aa(lp1000
F0.585
aF0.285
aF0.13
aa(lp1001
F0.5434782608695652
aF0.41304347826086957
aF0.043478260869565216
aa(lp1002
F0.04819277108433735
aF0.9096385542168675
aF0.04216867469879518
aa(lp1003
F0.36879432624113473
aF0.475177304964539
aF0.15602836879432624
aa(lp1004
F0.4824561403508772
aF0.4473684210526316
aF0.07017543859649122
aa(lp1005
F0.33695652173913043
aF0.5869565217391305
aF0.07608695652173914
aa(lp1006
F0.4125874125874126
aF0.44755244755244755
aF0.13986013986013987
aa(lp1007
F0.4406779661016949
aF0.4491525423728814
aF0.11016949152542373
aa(lp1008
F0.5570175438596491
aF0.34649122807017546
aF0.09649122807017543
aa(lp1009
F0.37777777777777777
aF0.4444444444444444
aF0.17777777777777778
aa(lp1010
F0.18316831683168316
aF0.7475247524752475
aF0.06930693069306931
aa(lp1011
F0.2608695652173913
aF0.5815217391304348
aF0.15760869565217392
aa(lp1012
F0.4579831932773109
aF0.3025210084033613
aF0.23949579831932774
aa(lp1013
F0.2827586206896552
aF0.5793103448275863
aF0.13793103448275862
aa(lp1014
F0.19123505976095617
aF0.6374501992031872
aF0.17131474103585656
aa(lp1015
F0.2604166666666667
aF0.6145833333333334
aF0.125
aa(lp1016
F0.4860335195530726
aF0.4134078212290503
aF0.1005586592178771
aa(lp1017
F0.5111111111111111
aF0.4533333333333333
aF0.035555555555555556
aa(lp1018
F0.710691823899371
aF0.23270440251572327
aF0.05660377358490566
aa(lp1019
F0.6363636363636364
aF0.2727272727272727
aF0.09090909090909091
aa(lp1020
F0.3625
aF0.5375
aF0.1
aa(lp1021
F0.3902439024390244
aF0.43089430894308944
aF0.17886178861788618
aa(lp1022
F0.10899470899470899
aF0.8465608465608465
aF0.044444444444444446
aa(lp1023
F0.4009433962264151
aF0.49056603773584906
aF0.10849056603773585
aa(lp1024
F0.23972602739726026
aF0.4863013698630137
aF0.273972602739726
aa(lp1025
F0.37037037037037035
aF0.5
aF0.12962962962962962
aa(lp1026
F0.38620689655172413
aF0.5448275862068965
aF0.06896551724137931
aa(lp1027
F0.44
aF0.37
aF0.19
aa(lp1028
F0.4797687861271676
aF0.42196531791907516
aF0.09826589595375723
aa(lp1029
F0.0
aF0.9773462783171522
aF0.022653721682847898
aa(lp1030
F0.37606837606837606
aF0.5470085470085471
aF0.07692307692307693
aa(lp1031
F0.4434782608695652
aF0.4826086956521739
aF0.07391304347826087
aa(lp1032
F0.4658119658119658
aF0.45726495726495725
aF0.07692307692307693
aa(lp1033
F0.41914191419141916
aF0.43564356435643564
aF0.14521452145214522
aa(lp1034
F0.19875776397515527
aF0.7018633540372671
aF0.09937888198757763
aa(lp1035
F0.0
aF0.3333333333333333
aF0.6666666666666666
aa(lp1036
F0.36363636363636365
aF0.45454545454545453
aF0.18181818181818182
aa(lp1037
F0.30952380952380953
aF0.6190476190476191
aF0.07142857142857142
aa(lp1038
F0.2185430463576159
aF0.6688741721854304
aF0.11258278145695365
aa(lp1039
F0.5058823529411764
aF0.4
aF0.09411764705882353
aa(lp1040
F0.26785714285714285
aF0.5535714285714286
aF0.17857142857142858
aa(lp1041
F0.458041958041958
aF0.3356643356643357
aF0.2062937062937063
aa(lp1042
F0.136986301369863
aF0.726027397260274
aF0.136986301369863
aa(lp1043
F0.6438356164383562
aF0.273972602739726
aF0.0821917808219178
aa(lp1044
F0.3618421052631579
aF0.5394736842105263
aF0.09868421052631579
aa(lp1045
F0.5833333333333334
aF0.2361111111111111
aF0.18055555555555555
aa(lp1046
F0.3055555555555556
aF0.5416666666666666
aF0.1527777777777778
aa(lp1047
F0.3442622950819672
aF0.5081967213114754
aF0.14754098360655737
aa(lp1048
F0.4788732394366197
aF0.4225352112676056
aF0.09859154929577464
aa(lp1049
F0.2647058823529412
aF0.4411764705882353
aF0.29411764705882354
aa(lp1050
F0.3224489795918367
aF0.5918367346938775
aF0.08571428571428572
aa(lp1051
F0.3684210526315789
aF0.5
aF0.13157894736842105
aa(lp1052
F0.3436293436293436
aF0.6216216216216216
aF0.03474903474903475
aa(lp1053
F0.5576923076923077
aF0.40384615384615385
aF0.038461538461538464
aa(lp1054
F0.45454545454545453
aF0.45454545454545453
aF0.09090909090909091
aa(lp1055
F0.14342629482071714
aF0.8047808764940239
aF0.05179282868525897
aa(lp1056
F0.42424242424242425
aF0.48484848484848486
aF0.09090909090909091
aa(lp1057
F0.33783783783783783
aF0.6081081081081081
aF0.05405405405405406
aa(lp1058
F0.5217391304347826
aF0.34782608695652173
aF0.13043478260869565
aa(lp1059
F0.36633663366336633
aF0.48514851485148514
aF0.1485148514851485
aa(lp1060
F0.2857142857142857
aF0.6691729323308271
aF0.045112781954887216
aa(lp1061
F0.28717948717948716
aF0.5897435897435898
aF0.12307692307692308
aa(lp1062
F0.5182481751824818
aF0.3795620437956204
aF0.10218978102189781
aa(lp1063
F0.3048780487804878
aF0.6219512195121951
aF0.07317073170731707
aa(lp1064
F0.3333333333333333
aF0.5942028985507246
aF0.07246376811594203
aa(lp1065
F0.2894736842105263
aF0.42105263157894735
aF0.2894736842105263
aa(lp1066
F0.16666666666666666
aF0.3333333333333333
aF0.5
aa(lp1067
F0.4230769230769231
aF0.4230769230769231
aF0.15384615384615385
aa(lp1068
F0.410958904109589
aF0.4657534246575342
aF0.1232876712328767
aa(lp1069
F0.39520958083832336
aF0.5643712574850299
aF0.040419161676646706
aa(lp1070
F0.47115384615384615
aF0.4230769230769231
aF0.10576923076923077
aa(lp1071
F0.15432098765432098
aF0.7716049382716049
aF0.07407407407407407
aa(lp1072
F0.2740157480314961
aF0.6834645669291338
aF0.04251968503937008
aa(lp1073
F0.20105820105820105
aF0.7724867724867724
aF0.026455026455026454
aa(lp1074
F0.5510204081632653
aF0.22448979591836735
aF0.22448979591836735
aa(lp1075
F0.3181818181818182
aF0.6060606060606061
aF0.07575757575757576
aa(lp1076
F0.4482758620689655
aF0.47586206896551725
aF0.07586206896551724
aa(lp1077
F0.4943820224719101
aF0.38202247191011235
aF0.12359550561797752
aa(lp1078
F0.47619047619047616
aF0.34285714285714286
aF0.18095238095238095
aa(lp1079
F0.2541436464088398
aF0.6464088397790055
aF0.09944751381215469
aa(lp1080
F0.6733333333333333
aF0.22
aF0.10666666666666667
aa(lp1081
F0.2391304347826087
aF0.6521739130434783
aF0.10869565217391304
aa(lp1082
F0.330188679245283
aF0.5849056603773585
aF0.08490566037735849
aa(lp1083
F0.05555555555555555
aF0.9097222222222222
aF0.034722222222222224
aa(lp1084
F0.0008517887563884157
aF0.9965928449744463
aF0.002555366269165247
aa(lp1085
F0.3
aF0.6181818181818182
aF0.08181818181818182
aa(lp1086
F0.5
aF0.420863309352518
aF0.07913669064748201
aa(lp1087
F0.0
aF0.9989888776541962
aF0.0010111223458038423
aa(lp1088
F0.5522388059701493
aF0.3582089552238806
aF0.08955223880597014
aa(lp1089
F0.36885245901639346
aF0.5
aF0.13114754098360656
aa(lp1090
F0.4868421052631579
aF0.4276315789473684
aF0.08552631578947369
aa(lp1091
F0.0
aF0.997737556561086
aF0.0022624434389140274
aa(lp1092
F0.12480252764612954
aF0.8357030015797788
aF0.03949447077409163
aa(lp1093
F0.3541666666666667
aF0.5729166666666666
aF0.07291666666666667
aa(lp1094
F0.21766561514195584
aF0.7413249211356467
aF0.04100946372239748
aa(lp1095
F0.6404494382022472
aF0.29213483146067415
aF0.06741573033707865
aa(lp1096
F0.17592592592592593
aF0.75
aF0.07407407407407407
aa(lp1097
F0.032388663967611336
aF0.9271255060728745
aF0.04048582995951417
aa(lp1098
F0.4198473282442748
aF0.4732824427480916
aF0.10687022900763359
aa(lp1099
F0.3673469387755102
aF0.5510204081632653
aF0.08163265306122448
aa(lp1100
F0.3448275862068966
aF0.5344827586206896
aF0.1206896551724138
aa(lp1101
F0.1232876712328767
aF0.7534246575342466
aF0.1232876712328767
aa(lp1102
F0.4690265486725664
aF0.3893805309734513
aF0.1415929203539823
aa(lp1103
F0.3946360153256705
aF0.41762452107279696
aF0.18773946360153257
aa(lp1104
F0.1148936170212766
aF0.8042553191489362
aF0.08085106382978724
aa(lp1105
F0.45555555555555555
aF0.4666666666666667
aF0.07777777777777778
aa(lp1106
F0.4936708860759494
aF0.26582278481012656
aF0.24050632911392406
aa(lp1107
F0.5143769968051118
aF0.3993610223642173
aF0.08626198083067092
aa(lp1108
F0.35135135135135137
aF0.5675675675675675
aF0.08108108108108109
aa(lp1109
F0.3049645390070922
aF0.48226950354609927
aF0.2127659574468085
aa(lp1110
F0.3333333333333333
aF0.3939393939393939
aF0.2727272727272727
aa(lp1111
F0.40540540540540543
aF0.36486486486486486
aF0.22972972972972974
aa(lp1112
F0.34285714285714286
aF0.6190476190476191
aF0.0380952380952381
aa(lp1113
F0.53125
aF0.34375
aF0.125
aa(lp1114
F0.3246753246753247
aF0.38961038961038963
aF0.2857142857142857
aa(lp1115
F0.5467625899280576
aF0.33093525179856115
aF0.1223021582733813
aa(lp1116
F0.3404255319148936
aF0.5638297872340425
aF0.09574468085106383
aa(lp1117
F0.3582089552238806
aF0.3880597014925373
aF0.2537313432835821
aa(lp1118
F0.3108108108108108
aF0.3918918918918919
aF0.2972972972972973
aa(lp1119
F0.34615384615384615
aF0.46153846153846156
aF0.19230769230769232
aa(lp1120
F0.4842105263157895
aF0.4
aF0.11578947368421053
aa(lp1121
F0.48214285714285715
aF0.375
aF0.14285714285714285
aa(lp1122
F0.5132275132275133
aF0.24867724867724866
aF0.23809523809523808
aa(lp1123
F0.5420560747663551
aF0.3644859813084112
aF0.09345794392523364
aa(lp1124
F0.23469387755102042
aF0.6428571428571429
aF0.12244897959183673
aa(lp1125
F0.37142857142857144
aF0.5142857142857142
aF0.11428571428571428
aa(lp1126
F0.24050632911392406
aF0.5632911392405063
aF0.1962025316455696
aa(lp1127
F0.37662337662337664
aF0.4675324675324675
aF0.15584415584415584
aa(lp1128
F0.4774774774774775
aF0.4009009009009009
aF0.12162162162162163
aa(lp1129
F0.23255813953488372
aF0.3023255813953488
aF0.46511627906976744
aa(lp1130
F0.37662337662337664
aF0.2857142857142857
aF0.33766233766233766
aa(lp1131
F0.4396551724137931
aF0.4425287356321839
aF0.11781609195402298
aa(lp1132
F0.20481927710843373
aF0.7349397590361446
aF0.060240963855421686
aa(lp1133
F0.15267175572519084
aF0.6183206106870229
aF0.22900763358778625
aa(lp1134
F0.23529411764705882
aF0.6823529411764706
aF0.08235294117647059
aa(lp1135
F0.375
aF0.5258620689655172
aF0.09913793103448276
aa(lp1136
F0.4358974358974359
aF0.48717948717948717
aF0.07692307692307693
aa(lp1137
F0.5225806451612903
aF0.2129032258064516
aF0.2645161290322581
aa(lp1138
F0.38860103626943004
aF0.47668393782383417
aF0.13471502590673576
aa(lp1139
F0.2529411764705882
aF0.6764705882352942
aF0.07058823529411765
aa(lp1140
F0.4962121212121212
aF0.375
aF0.12878787878787878
aa(lp1141
F0.2722772277227723
aF0.6435643564356436
aF0.08415841584158416
aa(lp1142
F0.25846153846153846
aF0.6707692307692308
aF0.07076923076923076
aa(lp1143
F0.2618296529968454
aF0.2996845425867508
aF0.4384858044164038
aa(lp1144
F0.0016806722689075631
aF0.9966386554621849
aF0.0016806722689075631
aa(lp1145
F0.25842696629213485
aF0.30337078651685395
aF0.43820224719101125
aa(lp1146
F0.375
aF0.53125
aF0.09375
aa(lp1147
F0.20689655172413793
aF0.5862068965517241
aF0.20689655172413793
aa(lp1148
F0.3448275862068966
aF0.5287356321839081
aF0.12643678160919541
aa(lp1149
F0.27710843373493976
aF0.6024096385542169
aF0.12048192771084337
aa(lp1150
F0.36619718309859156
aF0.49295774647887325
aF0.14084507042253522
aa(lp1151
F0.3904761904761905
aF0.5285714285714286
aF0.08095238095238096
aa(lp1152
F0.4910394265232975
aF0.4050179211469534
aF0.1039426523297491
aa(lp1153
F0.3617021276595745
aF0.5106382978723404
aF0.1276595744680851
aa(lp1154
F0.43915343915343913
aF0.4656084656084656
aF0.09523809523809523
aa(lp1155
F0.275626423690205
aF0.6446469248291572
aF0.07972665148063782
aa(lp1156
F0.32608695652173914
aF0.45652173913043476
aF0.21739130434782608
aa(lp1157
F0.15037593984962405
aF0.8345864661654135
aF0.015037593984962405
aa(lp1158
F0.255
aF0.625
aF0.12
aa(lp1159
F0.5080645161290323
aF0.4274193548387097
aF0.06451612903225806
aa(lp1160
F0.3
aF0.525
aF0.175
aa(lp1161
F0.029288702928870293
aF0.9503138075313807
aF0.020397489539748955
aa(lp1162
F0.5
aF0.3870967741935484
aF0.11290322580645161
aa(lp1163
F0.375
aF0.4519230769230769
aF0.17307692307692307
aa(lp1164
F0.55
aF0.35
aF0.1
aa(lp1165
F0.3411764705882353
aF0.49411764705882355
aF0.16470588235294117
aa(lp1166
F0.14285714285714285
aF0.5714285714285714
aF0.2857142857142857
aa(lp1167
F0.5335463258785943
aF0.36421725239616615
aF0.10223642172523961
aa(lp1168
F0.5686274509803921
aF0.2549019607843137
aF0.17647058823529413
aa(lp1169
F0.336
aF0.352
aF0.312
aa(lp1170
F0.359375
aF0.46875
aF0.171875
aa(lp1171
F0.3130841121495327
aF0.5887850467289719
aF0.09813084112149532
aa(lp1172
F0.3394495412844037
aF0.5412844036697247
aF0.11926605504587157
aa(lp1173
F0.27906976744186046
aF0.6046511627906976
aF0.11627906976744186
aa(lp1174
F0.25
aF0.55
aF0.2
aa(lp1175
F0.6111111111111112
aF0.2777777777777778
aF0.1111111111111111
aa(lp1176
F0.06593406593406594
aF0.8461538461538461
aF0.08791208791208792
aa(lp1177
F0.7653061224489796
aF0.1836734693877551
aF0.05102040816326531
aa(lp1178
F0.4418604651162791
aF0.5116279069767442
aF0.046511627906976744
aa(lp1179
F0.4791666666666667
aF0.25
aF0.2708333333333333
aa(lp1180
F0.2777777777777778
aF0.3333333333333333
aF0.3888888888888889
aa(lp1181
F0.5
aF0.36764705882352944
aF0.1323529411764706
aa(lp1182
F0.562962962962963
aF0.37037037037037035
aF0.06666666666666667
aa(lp1183
F0.2818181818181818
aF0.65
aF0.06818181818181818
aa(lp1184
F0.3858695652173913
aF0.44565217391304346
aF0.16847826086956522
aa(lp1185
F0.49514563106796117
aF0.23300970873786409
aF0.27184466019417475
aa(lp1186
F0.4479166666666667
aF0.3958333333333333
aF0.15625
aa(lp1187
F0.5369458128078818
aF0.4039408866995074
aF0.059113300492610835
aa(lp1188
F0.42171189979123175
aF0.5010438413361169
aF0.07724425887265135
aa(lp1189
F0.5471698113207547
aF0.37735849056603776
aF0.07547169811320754
aa(lp1190
F0.36764705882352944
aF0.45588235294117646
aF0.17647058823529413
aa(lp1191
F0.4117647058823529
aF0.4852941176470588
aF0.10294117647058823
aa(lp1192
F0.37142857142857144
aF0.45714285714285713
aF0.17142857142857143
aa(lp1193
F0.30158730158730157
aF0.6031746031746031
aF0.09523809523809523
aa(lp1194
F0.23880597014925373
aF0.5373134328358209
aF0.22388059701492538
aa(lp1195
F0.15
aF0.7923076923076923
aF0.057692307692307696
aa(lp1196
F0.4015748031496063
aF0.4409448818897638
aF0.15748031496062992
aa(lp1197
F0.5575539568345323
aF0.289568345323741
aF0.1528776978417266
aa(lp1198
F0.4246575342465753
aF0.0958904109589041
aF0.4794520547945205
aa(lp1199
F0.6280193236714976
aF0.09178743961352658
aF0.28019323671497587
aa(lp1200
F0.7511961722488039
aF0.03349282296650718
aF0.215311004784689
aa(lp1201
F0.5824742268041238
aF0.041237113402061855
aF0.37628865979381443
aa(lp1202
F0.7368421052631579
aF0.031578947368421054
aF0.23157894736842105
aa(lp1203
F0.41025641025641024
aF0.1282051282051282
aF0.46153846153846156
aa(lp1204
F0.6373626373626373
aF0.02197802197802198
aF0.34065934065934067
aa(lp1205
F0.6879432624113475
aF0.0673758865248227
aF0.24468085106382978
aa(lp1206
F0.5108695652173914
aF0.05434782608695652
aF0.43478260869565216
aa(lp1207
F0.631578947368421
aF0.05263157894736842
aF0.3157894736842105
aa(lp1208
F0.7111111111111111
aF0.044444444444444446
aF0.24444444444444444
aa(lp1209
F0.3257287705956908
aF0.08998732572877059
aF0.5842839036755386
aa(lp1210
F0.7263157894736842
aF0.07368421052631578
aF0.2
aa(lp1211
F0.3541666666666667
aF0.1875
aF0.4583333333333333
aa(lp1212
F0.5688073394495413
aF0.07339449541284404
aF0.3577981651376147
aa(lp1213
F0.37719298245614036
aF0.13157894736842105
aF0.49122807017543857
aa(lp1214
F0.4857142857142857
aF0.08571428571428572
aF0.42857142857142855
aa(lp1215
F0.6242171189979123
aF0.07515657620041753
aF0.30062630480167013
aa(lp1216
F0.16666666666666666
aF0.19696969696969696
aF0.6363636363636364
aa(lp1217
F0.53125
aF0.0625
aF0.40625
aa(lp1218
F0.21818181818181817
aF0.2545454545454545
aF0.5272727272727272
aa(lp1219
F0.6962025316455697
aF0.056962025316455694
aF0.2468354430379747
aa(lp1220
F0.504424778761062
aF0.05309734513274336
aF0.4424778761061947
aa(lp1221
F0.7231638418079096
aF0.0903954802259887
aF0.1864406779661017
aa(lp1222
F0.37894736842105264
aF0.18947368421052632
aF0.43157894736842106
aa(lp1223
F0.5
aF0.10576923076923077
aF0.3942307692307692
aa(lp1224
F0.5204081632653061
aF0.08163265306122448
aF0.3979591836734694
aa(lp1225
F0.5072463768115942
aF0.2028985507246377
aF0.2898550724637681
aa(lp1226
F0.6564885496183206
aF0.10687022900763359
aF0.2366412213740458
aa(lp1227
F0.5797101449275363
aF0.057971014492753624
aF0.36231884057971014
aa(lp1228
F0.48868778280542985
aF0.09502262443438914
aF0.416289592760181
aa(lp1229
F0.6296296296296297
aF0.16666666666666666
aF0.2037037037037037
aa(lp1230
F0.5733333333333334
aF0.09333333333333334
aF0.3333333333333333
aa(lp1231
F0.6736842105263158
aF0.07368421052631578
aF0.25263157894736843
aa(lp1232
F0.5256410256410257
aF0.1794871794871795
aF0.2948717948717949
aa(lp1233
F0.6932515337423313
aF0.049079754601226995
aF0.25766871165644173
aa(lp1234
F0.8611111111111112
aF0.05555555555555555
aF0.08333333333333333
aa(lp1235
F0.5869565217391305
aF0.07971014492753623
aF0.3333333333333333
aa(lp1236
F0.16666666666666666
aF0.08333333333333333
aF0.75
aa(lp1237
F0.24
aF0.14
aF0.62
aa(lp1238
F0.4827586206896552
aF0.1724137931034483
aF0.3448275862068966
aa(lp1239
F0.5930232558139535
aF0.03488372093023256
aF0.37209302325581395
aa(lp1240
F0.8743455497382199
aF0.015706806282722512
aF0.1099476439790576
aa(lp1241
F0.5147058823529411
aF0.16176470588235295
aF0.3235294117647059
aa(lp1242
F0.594059405940594
aF0.1485148514851485
aF0.25742574257425743
aa(lp1243
F0.6923076923076923
aF0.07692307692307693
aF0.23076923076923078
aa(lp1244
F0.47701149425287354
aF0.022988505747126436
aF0.5
aa(lp1245
F0.6538461538461539
aF0.038461538461538464
aF0.3076923076923077
aa(lp1246
F0.7466666666666667
aF0.04
aF0.21333333333333335
aa(lp1247
F0.864516129032258
aF0.03870967741935484
aF0.0967741935483871
aa(lp1248
F0.5547945205479452
aF0.1232876712328767
aF0.3219178082191781
aa(lp1249
F0.4632352941176471
aF0.0661764705882353
aF0.47058823529411764
aa(lp1250
F0.4411764705882353
aF0.025735294117647058
aF0.5330882352941176
aa(lp1251
F0.32456140350877194
aF0.03508771929824561
aF0.6403508771929824
aa(lp1252
F0.45454545454545453
aF0.12121212121212122
aF0.42424242424242425
aa(lp1253
F0.6065573770491803
aF0.14754098360655737
aF0.2459016393442623
aa(lp1254
F0.7428571428571429
aF0.1
aF0.15714285714285714
aa(lp1255
F0.6407766990291263
aF0.07766990291262135
aF0.2815533980582524
aa(lp1256
F0.6730769230769231
aF0.038461538461538464
aF0.28846153846153844
aa(lp1257
F0.134739560912613
aF0.15238915195867414
aF0.7128712871287128
aa(lp1258
F0.7349397590361446
aF0.0963855421686747
aF0.1686746987951807
aa(lp1259
F0.7009569377990431
aF0.01674641148325359
aF0.2822966507177033
aa(lp1260
F0.43333333333333335
aF0.13333333333333333
aF0.43333333333333335
aa(lp1261
F0.7435897435897436
aF0.07692307692307693
aF0.1794871794871795
aa(lp1262
F0.6875
aF0.0625
aF0.25
aa(lp1263
F0.4146341463414634
aF0.17073170731707318
aF0.4146341463414634
aa(lp1264
F0.4528301886792453
aF0.1509433962264151
aF0.39622641509433965
aa(lp1265
F0.6781609195402298
aF0.034482758620689655
aF0.28735632183908044
aa(lp1266
F0.5066666666666667
aF0.06666666666666667
aF0.4266666666666667
aa(lp1267
F0.7045454545454546
aF0.017045454545454544
aF0.2784090909090909
aa(lp1268
F0.5538461538461539
aF0.18461538461538463
aF0.26153846153846155
aa(lp1269
F0.6692307692307692
aF0.07692307692307693
aF0.25384615384615383
aa(lp1270
F0.7883211678832117
aF0.043795620437956206
aF0.1678832116788321
aa(lp1271
F0.5758354755784062
aF0.015424164524421594
aF0.4087403598971722
aa(lp1272
F0.6814159292035398
aF0.061946902654867256
aF0.25663716814159293
aa(lp1273
F0.5645161290322581
aF0.03225806451612903
aF0.4032258064516129
aa(lp1274
F0.5877192982456141
aF0.05263157894736842
aF0.35964912280701755
aa(lp1275
F0.577922077922078
aF0.08441558441558442
aF0.33766233766233766
aa(lp1276
F0.7125748502994012
aF0.05389221556886228
aF0.23353293413173654
aa(lp1277
F0.7062937062937062
aF0.0979020979020979
aF0.1958041958041958
aa(lp1278
F0.7846153846153846
aF0.06153846153846154
aF0.15384615384615385
aa(lp1279
F0.569620253164557
aF0.1518987341772152
aF0.27848101265822783
aa(lp1280
F0.7321428571428571
aF0.05357142857142857
aF0.21428571428571427
aa(lp1281
F0.7591240875912408
aF0.0364963503649635
aF0.20437956204379562
aa(lp1282
F0.4044943820224719
aF0.25842696629213485
aF0.33707865168539325
aa(lp1283
F0.7414634146341463
aF0.05853658536585366
aF0.2
aa(lp1284
F0.49238578680203043
aF0.10152284263959391
aF0.40609137055837563
aa(lp1285
F0.7142857142857143
aF0.07936507936507936
aF0.20634920634920634
aa(lp1286
F0.5050505050505051
aF0.04040404040404041
aF0.45454545454545453
aa(lp1287
F0.603448275862069
aF0.15517241379310345
aF0.2413793103448276
aa(lp1288
F0.8421052631578947
aF0.02631578947368421
aF0.13157894736842105
aa(lp1289
F0.573373676248109
aF0.0907715582450832
aF0.3358547655068079
aa(lp1290
F0.6739130434782609
aF0.043478260869565216
aF0.2826086956521739
aa(lp1291
F0.38333333333333336
aF0.044444444444444446
aF0.5722222222222222
aa(lp1292
F0.7727272727272727
aF0.031818181818181815
aF0.19545454545454546
aa(lp1293
F0.6614173228346457
aF0.10236220472440945
aF0.23622047244094488
aa(lp1294
F0.622093023255814
aF0.029069767441860465
aF0.3488372093023256
aa(lp1295
F0.5841584158415841
aF0.1782178217821782
aF0.2376237623762376
aa(lp1296
F0.6375
aF0.1
aF0.2625
aa(lp1297
F0.5333333333333333
aF0.09333333333333334
aF0.37333333333333335
aa(lp1298
F0.6
aF0.09743589743589744
aF0.30256410256410254
aa(lp1299
F0.6104651162790697
aF0.029069767441860465
aF0.36046511627906974
aa(lp1300
F0.6756756756756757
aF0.05405405405405406
aF0.2702702702702703
aa(lp1301
F0.32857142857142857
aF0.05714285714285714
aF0.6142857142857143
aa(lp1302
F0.5208333333333334
aF0.16666666666666666
aF0.3125
aa(lp1303
F0.7361963190184049
aF0.06748466257668712
aF0.19631901840490798
aa(lp1304
F0.8623188405797102
aF0.028985507246376812
aF0.10869565217391304
aa(lp1305
F0.6588235294117647
aF0.0988235294117647
aF0.24235294117647058
aa(lp1306
F0.5952380952380952
aF0.07142857142857142
aF0.3333333333333333
aa(lp1307
F0.5503875968992248
aF0.023255813953488372
aF0.4263565891472868
aa(lp1308
F0.4634146341463415
aF0.07317073170731707
aF0.4634146341463415
aa(lp1309
F0.2708333333333333
aF0.08333333333333333
aF0.6458333333333334
aa(lp1310
F0.42857142857142855
aF0.13445378151260504
aF0.4369747899159664
aa(lp1311
F0.7415730337078652
aF0.07865168539325842
aF0.1797752808988764
aa(lp1312
F0.265625
aF0.140625
aF0.59375
aa(lp1313
F0.17142857142857143
aF0.15714285714285714
aF0.6714285714285714
aa(lp1314
F0.5714285714285714
aF0.10989010989010989
aF0.31868131868131866
aa(lp1315
F0.7183098591549296
aF0.007042253521126761
aF0.2746478873239437
aa(lp1316
F0.4838709677419355
aF0.12903225806451613
aF0.3870967741935484
aa(lp1317
F0.3950617283950617
aF0.037037037037037035
aF0.5679012345679012
aa(lp1318
F0.4864864864864865
aF0.13513513513513514
aF0.3783783783783784
aa(lp1319
F0.6402439024390244
aF0.10365853658536585
aF0.25609756097560976
aa(lp1320
F0.828125
aF0.046875
aF0.125
aa(lp1321
F0.6574074074074074
aF0.05555555555555555
aF0.28703703703703703
aa(lp1322
F0.48739495798319327
aF0.025210084033613446
aF0.48739495798319327
aa(lp1323
F0.8208955223880597
aF0.08955223880597014
aF0.08955223880597014
aa(lp1324
F0.676923076923077
aF0.06923076923076923
aF0.25384615384615383
aa(lp1325
F0.684931506849315
aF0.06164383561643835
aF0.2534246575342466
aa(lp1326
F0.7111111111111111
aF0.1111111111111111
aF0.17777777777777778
aa(lp1327
F0.8192771084337349
aF0.04819277108433735
aF0.13253012048192772
aa(lp1328
F0.5042016806722689
aF0.10084033613445378
aF0.3949579831932773
aa(lp1329
F0.5655737704918032
aF0.10655737704918032
aF0.32786885245901637
aa(lp1330
F0.7222222222222222
aF0.05555555555555555
aF0.2222222222222222
aa(lp1331
F0.6504854368932039
aF0.038834951456310676
aF0.3106796116504854
aa(lp1332
F0.484375
aF0.1953125
aF0.3203125
aa(lp1333
F0.75
aF0.10576923076923077
aF0.14423076923076922
aa(lp1334
F0.6702127659574468
aF0.10638297872340426
aF0.22340425531914893
aa(lp1335
F0.7079646017699115
aF0.035398230088495575
aF0.25663716814159293
aa(lp1336
F0.531578947368421
aF0.05789473684210526
aF0.4105263157894737
aa(lp1337
F0.43333333333333335
aF0.1
aF0.4666666666666667
aa(lp1338
F0.29411764705882354
aF0.23529411764705882
aF0.47058823529411764
aa(lp1339
F0.6120218579234973
aF0.0546448087431694
aF0.3333333333333333
aa(lp1340
F0.6766467065868264
aF0.017964071856287425
aF0.30538922155688625
aa(lp1341
F0.4444444444444444
aF0.044444444444444446
aF0.5111111111111111
aa(lp1342
F0.5943396226415094
aF0.12264150943396226
aF0.2830188679245283
aa(lp1343
F0.41164021164021164
aF0.0962962962962963
aF0.49206349206349204
aa(lp1344
F0.6666666666666666
aF0.11538461538461539
aF0.21794871794871795
aa(lp1345
F0.36585365853658536
aF0.07317073170731707
aF0.5609756097560976
aa(lp1346
F0.15789473684210525
aF0.14035087719298245
aF0.7017543859649122
aa(lp1347
F0.41904761904761906
aF0.0380952380952381
aF0.5428571428571428
aa(lp1348
F0.43558282208588955
aF0.05214723926380368
aF0.5122699386503068
aa(lp1349
F0.5052631578947369
aF0.12631578947368421
aF0.3684210526315789
aa(lp1350
F0.3673469387755102
aF0.10204081632653061
aF0.5306122448979592
aa(lp1351
F0.5968109339407744
aF0.08200455580865604
aF0.3211845102505695
aa(lp1352
F0.42857142857142855
aF0.21428571428571427
aF0.35714285714285715
aa(lp1353
F0.7394366197183099
aF0.056338028169014086
aF0.20422535211267606
aa(lp1354
F0.34065934065934067
aF0.15384615384615385
aF0.5054945054945055
aa(lp1355
F0.6602564102564102
aF0.09615384615384616
aF0.24358974358974358
aa(lp1356
F0.6732673267326733
aF0.13861386138613863
aF0.18811881188118812
aa(lp1357
F0.2876712328767123
aF0.0958904109589041
aF0.6164383561643836
aa(lp1358
F0.2137037037037037
aF0.09111111111111111
aF0.6951851851851852
aa(lp1359
F0.8181818181818182
aF0.045454545454545456
aF0.13636363636363635
aa(lp1360
F0.5789473684210527
aF0.1368421052631579
aF0.28421052631578947
aa(lp1361
F0.32038834951456313
aF0.1539528432732316
aF0.5256588072122053
aa(lp1362
F0.7207207207207207
aF0.02702702702702703
aF0.25225225225225223
aa(lp1363
F0.5373134328358209
aF0.14925373134328357
aF0.31343283582089554
aa(lp1364
F0.5161290322580645
aF0.043010752688172046
aF0.44086021505376344
aa(lp1365
F0.6235955056179775
aF0.05056179775280899
aF0.3258426966292135
aa(lp1366
F0.40115606936416187
aF0.042196531791907514
aF0.5566473988439307
aa(lp1367
F0.553030303030303
aF0.09848484848484848
aF0.3484848484848485
aa(lp1368
F0.4888888888888889
aF0.1111111111111111
aF0.4
aa(lp1369
F0.5223880597014925
aF0.14925373134328357
aF0.3283582089552239
aa(lp1370
F0.32786885245901637
aF0.19672131147540983
aF0.47540983606557374
aa(lp1371
F0.5
aF0.06818181818181818
aF0.4318181818181818
aa(lp1372
F0.5443037974683544
aF0.11392405063291139
aF0.34177215189873417
aa(lp1373
F0.7155963302752294
aF0.06422018348623854
aF0.22018348623853212
aa(lp1374
F0.584070796460177
aF0.23893805309734514
aF0.17699115044247787
aa(lp1375
F0.4479166666666667
aF0.041666666666666664
aF0.5104166666666666
aa(lp1376
F0.3888888888888889
aF0.044444444444444446
aF0.5666666666666667
aa(lp1377
F0.2723735408560311
aF0.07782101167315175
aF0.6498054474708171
aa(lp1378
F0.4666666666666667
aF0.12222222222222222
aF0.4111111111111111
aa(lp1379
F0.4166666666666667
aF0.3333333333333333
aF0.25
aa(lp1380
F0.5726495726495726
aF0.02564102564102564
aF0.4017094017094017
aa(lp1381
F0.4186046511627907
aF0.2558139534883721
aF0.32558139534883723
aa(lp1382
F0.656441717791411
aF0.10429447852760736
aF0.2392638036809816
aa(lp1383
F0.17920656634746923
aF0.09803921568627451
aF0.7227542179662563
aa(lp1384
F0.6486486486486487
aF0.0990990990990991
aF0.25225225225225223
aa(lp1385
F0.6242424242424243
aF0.06060606060606061
aF0.3151515151515151
aa(lp1386
F0.7538461538461538
aF0.06153846153846154
aF0.18461538461538463
aa(lp1387
F0.7887323943661971
aF0.07042253521126761
aF0.14084507042253522
aa(lp1388
F0.9012345679012346
aF0.04938271604938271
aF0.04938271604938271
aa(lp1389
F0.6168831168831169
aF0.11038961038961038
aF0.2727272727272727
aa(lp1390
F0.6308724832214765
aF0.013422818791946308
aF0.35570469798657717
aa(lp1391
F0.42226487523992323
aF0.11900191938579655
aF0.45873320537428025
aa(lp1392
F0.42857142857142855
aF0.025974025974025976
aF0.5454545454545454
aa(lp1393
F0.6783216783216783
aF0.07692307692307693
aF0.24475524475524477
aa(lp1394
F0.2871287128712871
aF0.12871287128712872
aF0.5841584158415841
aa(lp1395
F0.40540540540540543
aF0.10810810810810811
aF0.4864864864864865
aa(lp1396
F0.6491228070175439
aF0.08771929824561403
aF0.2631578947368421
aa(lp1397
F0.3233923578751165
aF0.412861136999068
aF0.2637465051258155
aa(lp1398
F0.7125
aF0.0875
aF0.2
aa(lp1399
F0.6376811594202898
aF0.07246376811594203
aF0.2898550724637681
aa(lp1400
F0.7377622377622378
aF0.04895104895104895
aF0.21328671328671328
aa(lp1401
F0.63
aF0.05
aF0.32
aa(lp1402
F0.6333333333333333
aF0.044444444444444446
aF0.32222222222222224
aa(lp1403
F0.5315315315315315
aF0.14414414414414414
aF0.32432432432432434
aa(lp1404
F0.15789473684210525
aF0.2631578947368421
aF0.5789473684210527
aa(lp1405
F0.7333333333333333
aF0.0380952380952381
aF0.22857142857142856
aa(lp1406
F0.7716535433070866
aF0.05511811023622047
aF0.1732283464566929
aa(lp1407
F0.18867924528301888
aF0.03773584905660377
aF0.7735849056603774
aa(lp1408
F0.38636363636363635
aF0.10606060606060606
aF0.5075757575757576
aa(lp1409
F0.5714285714285714
aF0.09523809523809523
aF0.3333333333333333
aa(lp1410
F0.6666666666666666
aF0.043478260869565216
aF0.2898550724637681
aa(lp1411
F0.6510067114093959
aF0.09395973154362416
aF0.2550335570469799
aa(lp1412
F0.7891156462585034
aF0.05442176870748299
aF0.1564625850340136
aa(lp1413
F0.70625
aF0.0625
aF0.23125
aa(lp1414
F0.7640449438202247
aF0.02247191011235955
aF0.21348314606741572
aa(lp1415
F0.6774193548387096
aF0.1935483870967742
aF0.12903225806451613
aa(lp1416
F0.67
aF0.04
aF0.29
aa(lp1417
F0.7529411764705882
aF0.07058823529411765
aF0.17647058823529413
aa(lp1418
F0.5736434108527132
aF0.21705426356589147
aF0.20930232558139536
aa(lp1419
F0.5540540540540541
aF0.05405405405405406
aF0.3918918918918919
aa(lp1420
F0.5663716814159292
aF0.061946902654867256
aF0.37168141592920356
aa(lp1421
F0.6336633663366337
aF0.07920792079207921
aF0.2871287128712871
aa(lp1422
F0.21428571428571427
aF0.03571428571428571
aF0.75
aa(lp1423
F0.5
aF0.11224489795918367
aF0.3877551020408163
aa(lp1424
F0.8152173913043478
aF0.03804347826086957
aF0.14673913043478262
aa(lp1425
F0.48148148148148145
aF0.027777777777777776
aF0.49074074074074076
aa(lp1426
F0.43157894736842106
aF0.09473684210526316
aF0.47368421052631576
aa(lp1427
F0.4461538461538462
aF0.03076923076923077
aF0.5230769230769231
aa(lp1428
F0.8529411764705882
aF0.029411764705882353
aF0.11764705882352941
aa(lp1429
F0.6231884057971014
aF0.11594202898550725
aF0.2608695652173913
aa(lp1430
F0.7487684729064039
aF0.06896551724137931
aF0.18226600985221675
aa(lp1431
F0.5243243243243243
aF0.07027027027027027
aF0.40540540540540543
aa(lp1432
F0.5
aF0.06756756756756757
aF0.43243243243243246
aa(lp1433
F0.3
aF0.07
aF0.63
aa(lp1434
F0.5914634146341463
aF0.09146341463414634
aF0.3170731707317073
aa(lp1435
F0.4090909090909091
aF0.031818181818181815
aF0.5590909090909091
aa(lp1436
F0.8857142857142857
aF0.07142857142857142
aF0.04285714285714286
aa(lp1437
F0.7228070175438597
aF0.03859649122807018
aF0.23859649122807017
aa(lp1438
F0.11421553576911268
aF0.13447958243782623
aF0.7513048817930611
aa(lp1439
F0.4444444444444444
aF0.16666666666666666
aF0.3888888888888889
aa(lp1440
F0.6348155156102177
aF0.023651844843897825
aF0.3415326395458846
aa(lp1441
F0.7176470588235294
aF0.06470588235294118
aF0.21764705882352942
aa(lp1442
F0.6853932584269663
aF0.10112359550561797
aF0.21348314606741572
aa(lp1443
F0.6363636363636364
aF0.045454545454545456
aF0.3181818181818182
aa(lp1444
F0.5217391304347826
aF0.2463768115942029
aF0.2318840579710145
aa(lp1445
F0.5871559633027523
aF0.09174311926605505
aF0.3211009174311927
aa(lp1446
F0.5686274509803921
aF0.12745098039215685
aF0.30392156862745096
aa(lp1447
F0.6548672566371682
aF0.061946902654867256
aF0.2831858407079646
aa(lp1448
F0.6823529411764706
aF0.12941176470588237
aF0.18823529411764706
aa(lp1449
F0.42142857142857143
aF0.09285714285714286
aF0.4857142857142857
aa(lp1450
F0.7627118644067796
aF0.13559322033898305
aF0.1016949152542373
aa(lp1451
F0.4603174603174603
aF0.12698412698412698
aF0.4126984126984127
aa(lp1452
F0.6205357142857143
aF0.05357142857142857
aF0.32589285714285715
aa(lp1453
F0.6329113924050633
aF0.06329113924050633
aF0.3037974683544304
aa(lp1454
F0.7071428571428572
aF0.05714285714285714
aF0.2357142857142857
aa(lp1455
F0.631578947368421
aF0.14035087719298245
aF0.22807017543859648
aa(lp1456
F0.5083333333333333
aF0.03333333333333333
aF0.4583333333333333
aa(lp1457
F0.6354166666666666
aF0.08333333333333333
aF0.28125
aa(lp1458
F0.5977011494252874
aF0.05747126436781609
aF0.3448275862068966
aa(lp1459
F0.2191958495460441
aF0.2529182879377432
aF0.5278858625162127
aa(lp1460
F0.1184573002754821
aF0.09366391184573003
aF0.7878787878787878
aa(lp1461
F0.7021276595744681
aF0.14893617021276595
aF0.14893617021276595
aa(lp1462
F0.24324324324324326
aF0.02702702702702703
aF0.7297297297297297
aa(lp1463
F0.575
aF0.05
aF0.375
aa(lp1464
F0.7368421052631579
aF0.07017543859649122
aF0.19298245614035087
aa(lp1465
F0.29411764705882354
aF0.058823529411764705
aF0.6470588235294118
aa(lp1466
F0.5373134328358209
aF0.07462686567164178
aF0.3880597014925373
aa(lp1467
F0.11467324290998766
aF0.14303329223181258
aF0.7422934648581998
aa(lp1468
F0.4107142857142857
aF0.17857142857142858
aF0.4107142857142857
aa(lp1469
F0.46634615384615385
aF0.10576923076923077
aF0.42788461538461536
aa(lp1470
F0.5774647887323944
aF0.15492957746478872
aF0.2676056338028169
aa(lp1471
F0.5674157303370787
aF0.02247191011235955
aF0.4101123595505618
aa(lp1472
F0.672782874617737
aF0.0672782874617737
aF0.2599388379204893
aa(lp1473
F0.6445783132530121
aF0.05421686746987952
aF0.30120481927710846
aa(lp1474
F0.6423357664233577
aF0.0948905109489051
aF0.26277372262773724
aa(lp1475
F0.6910569105691057
aF0.11382113821138211
aF0.1951219512195122
aa(lp1476
F0.5714285714285714
aF0.09523809523809523
aF0.3333333333333333
aa(lp1477
F0.5393258426966292
aF0.10112359550561797
aF0.3595505617977528
aa(lp1478
F0.5393258426966292
aF0.12359550561797752
aF0.33707865168539325
aa(lp1479
F0.5263157894736842
aF0.08421052631578947
aF0.3894736842105263
aa(lp1480
F0.7314814814814815
aF0.05555555555555555
aF0.21296296296296297
aa(lp1481
F0.6666666666666666
aF0.044444444444444446
aF0.28888888888888886
aa(lp1482
F0.46710526315789475
aF0.07236842105263158
aF0.4605263157894737
aa(lp1483
F0.6894409937888198
aF0.11180124223602485
aF0.19875776397515527
aa(lp1484
F0.5925925925925926
aF0.07407407407407407
aF0.3333333333333333
aa(lp1485
F0.8207547169811321
aF0.03773584905660377
aF0.14150943396226415
aa(lp1486
F0.6637168141592921
aF0.08849557522123894
aF0.24778761061946902
aa(lp1487
F0.7142857142857143
aF0.07142857142857142
aF0.21428571428571427
aa(lp1488
F0.46551724137931033
aF0.05172413793103448
aF0.4827586206896552
aa(lp1489
F0.5269461077844312
aF0.041916167664670656
aF0.4311377245508982
aa(lp1490
F0.5
aF0.1
aF0.4
aa(lp1491
F0.7362637362637363
aF0.04945054945054945
aF0.21428571428571427
aa(lp1492
F0.6258503401360545
aF0.20408163265306123
aF0.17006802721088435
aa(lp1493
F0.39473684210526316
aF0.13157894736842105
aF0.47368421052631576
aa(lp1494
F0.696078431372549
aF0.0784313725490196
aF0.22549019607843138
aa(lp1495
F0.7428571428571429
aF0.014285714285714285
aF0.24285714285714285
aa(lp1496
F0.6828193832599119
aF0.019823788546255508
aF0.2973568281938326
aa(lp1497
F0.7263157894736842
aF0.07368421052631578
aF0.2
aa(lp1498
F0.55859375
aF0.06640625
aF0.375
aa(lp1499
F0.75
aF0.06578947368421052
aF0.18421052631578946
aa(lp1500
F0.5365853658536586
aF0.24390243902439024
aF0.21951219512195122
aa(lp1501
F0.5
aF0.050970873786407765
aF0.44902912621359226
aa(lp1502
F0.8351648351648352
aF0.02197802197802198
aF0.14285714285714285
aa(lp1503
F0.7152317880794702
aF0.10596026490066225
aF0.17880794701986755
aa(lp1504
F0.5400763358778626
aF0.015267175572519083
aF0.4446564885496183
aa(lp1505
F0.32786885245901637
aF0.09836065573770492
aF0.5737704918032787
aa(lp1506
F0.5244755244755245
aF0.1258741258741259
aF0.34965034965034963
aa(lp1507
F0.627906976744186
aF0.046511627906976744
aF0.32558139534883723
aa(lp1508
F0.7564766839378239
aF0.05699481865284974
aF0.18652849740932642
aa(lp1509
F0.42105263157894735
aF0.3684210526315789
aF0.21052631578947367
aa(lp1510
F0.5674418604651162
aF0.15813953488372093
aF0.2744186046511628
aa(lp1511
F0.7169811320754716
aF0.0440251572327044
aF0.2389937106918239
aa(lp1512
F0.6307692307692307
aF0.11538461538461539
aF0.25384615384615383
aa(lp1513
F0.27586206896551724
aF0.08275862068965517
aF0.6413793103448275
aa(lp1514
F0.3235294117647059
aF0.19117647058823528
aF0.4852941176470588
aa(lp1515
F0.72
aF0.06
aF0.22
aa(lp1516
F0.3644067796610169
aF0.06779661016949153
aF0.5677966101694916
aa(lp1517
F0.45977011494252873
aF0.05747126436781609
aF0.4827586206896552
aa(lp1518
F0.4860335195530726
aF0.11173184357541899
aF0.4022346368715084
aa(lp1519
F0.6666666666666666
aF0.14102564102564102
aF0.19230769230769232
aa(lp1520
F0.6153846153846154
aF0.046153846153846156
aF0.3384615384615385
aa(lp1521
F0.6626506024096386
aF0.045180722891566265
aF0.2921686746987952
aa(lp1522
F0.4262295081967213
aF0.08196721311475409
aF0.4918032786885246
aa(lp1523
F0.5789473684210527
aF0.07894736842105263
aF0.34210526315789475
aa(lp1524
F0.4830917874396135
aF0.13043478260869565
aF0.3864734299516908
aa(lp1525
F0.4925373134328358
aF0.1044776119402985
aF0.40298507462686567
aa(lp1526
F0.6176470588235294
aF0.14705882352941177
aF0.23529411764705882
aa(lp1527
F0.1650943396226415
aF0.03773584905660377
aF0.7971698113207547
aa(lp1528
F0.6111111111111112
aF0.07407407407407407
aF0.3148148148148148
aa(lp1529
F0.2302158273381295
aF0.20863309352517986
aF0.5611510791366906
aa(lp1530
F0.47126436781609193
aF0.10344827586206896
aF0.42528735632183906
aa(lp1531
F0.6726190476190477
aF0.05952380952380952
aF0.26785714285714285
aa(lp1532
F0.7310924369747899
aF0.17647058823529413
aF0.09243697478991597
aa(lp1533
F0.7647058823529411
aF0.04201680672268908
aF0.19327731092436976
aa(lp1534
F0.7790697674418605
aF0.06976744186046512
aF0.1511627906976744
aa(lp1535
F0.4803921568627451
aF0.0392156862745098
aF0.4803921568627451
aa(lp1536
F0.4577777777777778
aF0.02666666666666667
aF0.5155555555555555
aa(lp1537
F0.5529411764705883
aF0.026470588235294117
aF0.42058823529411765
aa(lp1538
F0.41935483870967744
aF0.1935483870967742
aF0.3870967741935484
aa(lp1539
F0.5182481751824818
aF0.10218978102189781
aF0.3795620437956204
aa(lp1540
F0.5111111111111111
aF0.2
aF0.28888888888888886
aa(lp1541
F0.7666666666666667
aF0.022222222222222223
aF0.2111111111111111
aa(lp1542
F0.6484848484848484
aF0.030303030303030304
aF0.3212121212121212
aa(lp1543
F0.6634103019538188
aF0.013765541740674956
aF0.3228241563055062
aa(lp1544
F0.5173611111111112
aF0.03819444444444445
aF0.4444444444444444
aa(lp1545
F0.25165562913907286
aF0.0728476821192053
aF0.6754966887417219
aa(lp1546
F0.11279229711141678
aF0.1856946354883081
aF0.7015130674002751
aa(lp1547
F0.2145748987854251
aF0.1700404858299595
aF0.6153846153846154
aa(lp1548
F0.4051724137931034
aF0.0603448275862069
aF0.5344827586206896
aa(lp1549
F0.2978723404255319
aF0.10638297872340426
aF0.5957446808510638
aa(lp1550
F0.7307692307692307
aF0.09615384615384616
aF0.17307692307692307
aa(lp1551
F0.461038961038961
aF0.07142857142857142
aF0.4675324675324675
aa(lp1552
F0.673202614379085
aF0.0457516339869281
aF0.28104575163398693
aa(lp1553
F0.6535433070866141
aF0.05511811023622047
aF0.29133858267716534
aa(lp1554
F0.42424242424242425
aF0.06060606060606061
aF0.5151515151515151
aa(lp1555
F0.45930232558139533
aF0.040697674418604654
aF0.5
aa(lp1556
F0.5217391304347826
aF0.08260869565217391
aF0.39565217391304347
aa(lp1557
F0.3283582089552239
aF0.1044776119402985
aF0.5671641791044776
aa(lp1558
F0.6577181208053692
aF0.040268456375838924
aF0.30201342281879195
aa(lp1559
F0.6625766871165644
aF0.05521472392638037
aF0.2822085889570552
aa(lp1560
F0.7582417582417582
aF0.06043956043956044
aF0.1813186813186813
aa(lp1561
F0.65
aF0.15
aF0.2
aa(lp1562
F0.2839506172839506
aF0.18518518518518517
aF0.5308641975308642
aa(lp1563
F0.3524229074889868
aF0.07048458149779736
aF0.5770925110132159
aa(lp1564
F0.5675675675675675
aF0.12162162162162163
aF0.3108108108108108
aa(lp1565
F0.2948717948717949
aF0.15384615384615385
aF0.5512820512820513
aa(lp1566
F0.647887323943662
aF0.06338028169014084
aF0.2887323943661972
aa(lp1567
F0.7619047619047619
aF0.07142857142857142
aF0.16666666666666666
aa(lp1568
F0.5
aF0.14285714285714285
aF0.35714285714285715
aa(lp1569
F0.7283950617283951
aF0.037037037037037035
aF0.2345679012345679
aa(lp1570
F0.6731707317073171
aF0.0975609756097561
aF0.22926829268292684
aa(lp1571
F0.8031496062992126
aF0.05511811023622047
aF0.14173228346456693
aa(lp1572
F0.30434782608695654
aF0.10869565217391304
aF0.5869565217391305
aa(lp1573
F0.6885245901639344
aF0.040983606557377046
aF0.27049180327868855
aa(lp1574
F0.7741935483870968
aF0.03225806451612903
aF0.1935483870967742
aa(lp1575
F0.6737588652482269
aF0.03546099290780142
aF0.2907801418439716
aa(lp1576
F0.6474820143884892
aF0.03597122302158273
aF0.31654676258992803
aa(lp1577
F0.7543859649122807
aF0.07017543859649122
aF0.17543859649122806
aa(lp1578
F0.7534883720930232
aF0.03255813953488372
aF0.21395348837209302
aa(lp1579
F0.34615384615384615
aF0.4230769230769231
aF0.23076923076923078
aa(lp1580
F0.453125
aF0.265625
aF0.28125
aa(lp1581
F0.6818181818181818
aF0.049586776859504134
aF0.26859504132231404
aa(lp1582
F0.36538461538461536
aF0.11538461538461539
aF0.5192307692307693
aa(lp1583
F0.6792452830188679
aF0.10377358490566038
aF0.2169811320754717
aa(lp1584
F0.4158415841584158
aF0.09900990099009901
aF0.48514851485148514
aa(lp1585
F0.7058823529411765
aF0.047058823529411764
aF0.24705882352941178
aa(lp1586
F0.5833333333333334
aF0.21666666666666667
aF0.2
aa(lp1587
F0.825136612021858
aF0.03825136612021858
aF0.1366120218579235
aa(lp1588
F0.7375
aF0.05
aF0.2125
aa(lp1589
F0.7674418604651163
aF0.03488372093023256
aF0.19767441860465115
aa(lp1590
F0.5510204081632653
aF0.12244897959183673
aF0.32653061224489793
aa(lp1591
F0.75
aF0.105
aF0.145
aa(lp1592
F0.19497784342688332
aF0.06794682422451995
aF0.7370753323485968
aa(lp1593
F0.6470588235294118
aF0.058823529411764705
aF0.29411764705882354
aa(lp1594
F0.5053763440860215
aF0.03225806451612903
aF0.46236559139784944
aa(lp1595
F0.76
aF0.04
aF0.2
aa(lp1596
F0.6227848101265823
aF0.02278481012658228
aF0.35443037974683544
aa(lp1597
F0.5754189944134078
aF0.04189944134078212
aF0.38268156424581007
aa(lp1598
F0.4810126582278481
aF0.029535864978902954
aF0.48945147679324896
aa(lp1599
F0.6212121212121212
aF0.045454545454545456
aF0.3333333333333333
aa(lp1600
F0.6296296296296297
aF0.09876543209876543
aF0.2716049382716049
aa(lp1601
F0.7222222222222222
aF0.03333333333333333
aF0.24444444444444444
aa(lp1602
F0.47692307692307695
aF0.026923076923076925
aF0.49615384615384617
aa(lp1603
F0.7051282051282052
aF0.038461538461538464
aF0.2564102564102564
aa(lp1604
F0.691358024691358
aF0.10493827160493827
aF0.2037037037037037
aa(lp1605
F0.6473684210526316
aF0.08947368421052632
aF0.2631578947368421
aa(lp1606
F0.42424242424242425
aF0.13131313131313133
aF0.4444444444444444
aa(lp1607
F0.6
aF0.04827586206896552
aF0.35172413793103446
aa(lp1608
F0.5070422535211268
aF0.14084507042253522
aF0.352112676056338
aa(lp1609
F0.7018348623853211
aF0.08256880733944955
aF0.21559633027522937
aa(lp1610
F0.69
aF0.03
aF0.28
aa(lp1611
F0.5024630541871922
aF0.1330049261083744
aF0.3645320197044335
aa(lp1612
F0.8113207547169812
aF0.025157232704402517
aF0.16352201257861634
aa(lp1613
F0.55
aF0.1
aF0.35
aa(lp1614
F0.625
aF0.03017241379310345
aF0.3448275862068966
aa(lp1615
F0.7403846153846154
aF0.028846153846153848
aF0.23076923076923078
aa(lp1616
F0.4785714285714286
aF0.15
aF0.37142857142857144
aa(lp1617
F0.8
aF0.1
aF0.1
aa(lp1618
F0.4827586206896552
aF0.2413793103448276
aF0.27586206896551724
aa(lp1619
F0.44
aF0.1
aF0.46
aa(lp1620
F0.5494505494505495
aF0.18681318681318682
aF0.26373626373626374
aa(lp1621
F0.7532467532467533
aF0.006493506493506494
aF0.24025974025974026
aa(lp1622
F0.53
aF0.05
aF0.42
aa(lp1623
F0.5080645161290323
aF0.056451612903225805
aF0.43548387096774194
aa(lp1624
F0.4827586206896552
aF0.13793103448275862
aF0.3793103448275862
aa(lp1625
F0.2571428571428571
aF0.05714285714285714
aF0.6857142857142857
aa(lp1626
F0.5555555555555556
aF0.1414141414141414
aF0.30303030303030304
aa(lp1627
F0.3465346534653465
aF0.07920792079207921
aF0.5742574257425742
aa(lp1628
F0.664
aF0.064
aF0.272
aa(lp1629
F0.5337620578778135
aF0.07395498392282958
aF0.39228295819935693
aa(lp1630
F0.676923076923077
aF0.015384615384615385
aF0.3076923076923077
aa(lp1631
F0.2967032967032967
aF0.054945054945054944
aF0.6483516483516484
aa(lp1632
F0.5021186440677966
aF0.11864406779661017
aF0.3792372881355932
aa(lp1633
F0.8028169014084507
aF0.056338028169014086
aF0.14084507042253522
aa(lp1634
F0.7976190476190477
aF0.05952380952380952
aF0.14285714285714285
aa(lp1635
F0.45864661654135336
aF0.17293233082706766
aF0.3684210526315789
aa(lp1636
F0.6890756302521008
aF0.11764705882352941
aF0.19327731092436976
aa(lp1637
F0.6794871794871795
aF0.05128205128205128
aF0.2692307692307692
aa(lp1638
F0.8509316770186336
aF0.024844720496894408
aF0.12422360248447205
aa(lp1639
F0.5970149253731343
aF0.11940298507462686
aF0.2835820895522388
aa(lp1640
F0.532258064516129
aF0.03225806451612903
aF0.43548387096774194
aa(lp1641
F0.275
aF0.1875
aF0.5375
aa(lp1642
F0.5798816568047337
aF0.029585798816568046
aF0.3905325443786982
aa(lp1643
F0.6990291262135923
aF0.019417475728155338
aF0.2815533980582524
aa(lp1644
F0.4107142857142857
aF0.22321428571428573
aF0.36607142857142855
aa(lp1645
F0.39
aF0.04
aF0.57
aa(lp1646
F0.684375
aF0.028125
aF0.2875
aa(lp1647
F0.65
aF0.12
aF0.23
aa(lp1648
F0.5942028985507246
aF0.11594202898550725
aF0.2898550724637681
aa(lp1649
F0.631578947368421
aF0.02456140350877193
aF0.34385964912280703
aa(lp1650
F0.7567567567567568
aF0.05405405405405406
aF0.1891891891891892
aa(lp1651
F0.8043478260869565
aF0.05434782608695652
aF0.14130434782608695
aa(lp1652
F0.5876288659793815
aF0.13402061855670103
aF0.27835051546391754
aa(lp1653
F0.7870722433460076
aF0.04182509505703422
aF0.17110266159695817
aa(lp1654
F0.25862068965517243
aF0.21551724137931033
aF0.5258620689655172
aa(lp1655
F0.3076923076923077
aF0.038461538461538464
aF0.6538461538461539
aa(lp1656
F0.7513812154696132
aF0.08287292817679558
aF0.16574585635359115
aa(lp1657
F0.4048582995951417
aF0.04048582995951417
aF0.5546558704453441
aa(lp1658
F0.4418604651162791
aF0.13953488372093023
aF0.4186046511627907
aa(lp1659
F0.5
aF0.11290322580645161
aF0.3870967741935484
aa(lp1660
F0.39655172413793105
aF0.040229885057471264
aF0.5632183908045977
aa(lp1661
F0.5909090909090909
aF0.03636363636363636
aF0.37272727272727274
aa(lp1662
F0.5950413223140496
aF0.21487603305785125
aF0.19008264462809918
aa(lp1663
F0.6
aF0.035555555555555556
aF0.36444444444444446
aa(lp1664
F0.6551724137931034
aF0.10344827586206896
aF0.2413793103448276
aa(lp1665
F0.3
aF0.1
aF0.6
aa(lp1666
F0.6165413533834586
aF0.12030075187969924
aF0.2631578947368421
aa(lp1667
F0.696969696969697
aF0.09848484848484848
aF0.20454545454545456
aa(lp1668
F0.2361111111111111
aF0.20833333333333334
aF0.5555555555555556
aa(lp1669
F0.6973684210526315
aF0.02631578947368421
aF0.27631578947368424
aa(lp1670
F0.7465437788018433
aF0.018433179723502304
aF0.2350230414746544
aa(lp1671
F0.43333333333333335
aF0.15
aF0.4166666666666667
aa(lp1672
F0.3684210526315789
aF0.15789473684210525
aF0.47368421052631576
aa(lp1673
F0.37037037037037035
aF0.2222222222222222
aF0.4074074074074074
aa(lp1674
F0.7847222222222222
aF0.06944444444444445
aF0.14583333333333334
aa(lp1675
F0.6467532467532467
aF0.03896103896103896
aF0.3142857142857143
aa(lp1676
F0.6610169491525424
aF0.15254237288135594
aF0.1864406779661017
aa(lp1677
F0.4946236559139785
aF0.11827956989247312
aF0.3870967741935484
aa(lp1678
F0.6
aF0.05
aF0.35
aa(lp1679
F0.21875
aF0.15625
aF0.625
aa(lp1680
F0.5721271393643031
aF0.05134474327628362
aF0.3765281173594132
aa(lp1681
F0.7884615384615384
aF0.038461538461538464
aF0.17307692307692307
aa(lp1682
F0.3333333333333333
aF0.3125
aF0.3541666666666667
aa(lp1683
F0.35135135135135137
aF0.17567567567567569
aF0.47297297297297297
aa(lp1684
F0.5317073170731708
aF0.07317073170731707
aF0.3951219512195122
aa(lp1685
F0.5072463768115942
aF0.17391304347826086
aF0.3188405797101449
aa(lp1686
F0.6301369863013698
aF0.0958904109589041
aF0.273972602739726
aa(lp1687
F0.6381578947368421
aF0.019736842105263157
aF0.34210526315789475
aa(lp1688
F0.5833333333333334
aF0.16666666666666666
aF0.25
aa(lp1689
F0.5945945945945946
aF0.12162162162162163
aF0.28378378378378377
aa(lp1690
F0.7662337662337663
aF0.05194805194805195
aF0.18181818181818182
aa(lp1691
F0.44072164948453607
aF0.03865979381443299
aF0.520618556701031
aa(lp1692
F0.5652173913043478
aF0.0782608695652174
aF0.3565217391304348
aa(lp1693
F0.7083333333333334
aF0.06944444444444445
aF0.2222222222222222
aa(lp1694
F0.4685714285714286
aF0.017142857142857144
aF0.5142857142857142
aa(lp1695
F0.6055045871559633
aF0.07339449541284404
aF0.3211009174311927
aa(lp1696
F0.775
aF0.05
aF0.175
aa(lp1697
F0.5416666666666666
aF0.20833333333333334
aF0.25
aa(lp1698
F0.5370370370370371
aF0.08333333333333333
aF0.37962962962962965
aa(lp1699
F0.5510204081632653
aF0.061224489795918366
aF0.3877551020408163
aa(lp1700
F0.41304347826086957
aF0.14130434782608695
aF0.44565217391304346
aa(lp1701
F0.1114335461404527
aF0.1073708647707487
aF0.7811955890887986
aa(lp1702
F0.6394557823129252
aF0.06802721088435375
aF0.2925170068027211
aa(lp1703
F0.5909090909090909
aF0.13636363636363635
aF0.2727272727272727
aa(lp1704
F0.5230769230769231
aF0.06153846153846154
aF0.4153846153846154
aa(lp1705
F0.345679012345679
aF0.09876543209876543
aF0.5555555555555556
aa(lp1706
F0.6759259259259259
aF0.07407407407407407
aF0.25
aa(lp1707
F0.3150684931506849
aF0.2191780821917808
aF0.4657534246575342
aa(lp1708
F0.20080321285140562
aF0.12048192771084337
aF0.678714859437751
aa(lp1709
F0.40625
aF0.14583333333333334
aF0.4479166666666667
aa(lp1710
F0.2727272727272727
aF0.22727272727272727
aF0.5
aa(lp1711
F0.6268656716417911
aF0.0945273631840796
aF0.27860696517412936
aa(lp1712
F0.18181818181818182
aF0.19318181818181818
aF0.625
aa(lp1713
F0.6993865030674846
aF0.04294478527607362
aF0.25766871165644173
aa(lp1714
F0.5128205128205128
aF0.02564102564102564
aF0.46153846153846156
aa(lp1715
F0.4782608695652174
aF0.08695652173913043
aF0.43478260869565216
aa(lp1716
F0.509090909090909
aF0.16363636363636364
aF0.32727272727272727
aa(lp1717
F0.7701149425287356
aF0.04597701149425287
aF0.1839080459770115
aa(lp1718
F0.16707021791767554
aF0.07990314769975787
aF0.7530266343825666
aa(lp1719
F0.676923076923077
aF0.03076923076923077
aF0.2923076923076923
aa(lp1720
F0.5
aF0.04672897196261682
aF0.4532710280373832
aa(lp1721
F0.3684210526315789
aF0.07894736842105263
aF0.5526315789473685
aa(lp1722
F0.3063063063063063
aF0.13513513513513514
aF0.5585585585585585
aa(lp1723
F0.6666666666666666
aF0.09090909090909091
aF0.24242424242424243
aa(lp1724
F0.7317073170731707
aF0.0975609756097561
aF0.17073170731707318
aa(lp1725
F0.4845360824742268
aF0.09278350515463918
aF0.422680412371134
aa(lp1726
F0.423728813559322
aF0.11864406779661017
aF0.4576271186440678
aa(lp1727
F0.6102941176470589
aF0.10294117647058823
aF0.2867647058823529
aa(lp1728
F0.5606060606060606
aF0.03787878787878788
aF0.4015151515151515
aa(lp1729
F0.6987951807228916
aF0.07228915662650602
aF0.2289156626506024
aa(lp1730
F0.2558139534883721
aF0.2558139534883721
aF0.4883720930232558
aa(lp1731
F0.29347826086956524
aF0.043478260869565216
aF0.6630434782608695
aa(lp1732
F0.29508196721311475
aF0.03278688524590164
aF0.6721311475409836
aa(lp1733
F0.5783132530120482
aF0.060240963855421686
aF0.3614457831325301
aa(lp1734
F0.7464788732394366
aF0.08450704225352113
aF0.16901408450704225
aa(lp1735
F0.7068965517241379
aF0.028735632183908046
aF0.26436781609195403
aa(lp1736
F0.6666666666666666
aF0.1388888888888889
aF0.19444444444444445
aa(lp1737
F0.46601941747572817
aF0.06796116504854369
aF0.46601941747572817
aa(lp1738
F0.39819004524886875
aF0.03167420814479638
aF0.5701357466063348
aa(lp1739
F0.7125748502994012
aF0.023952095808383235
aF0.2634730538922156
aa(lp1740
F0.7592592592592593
aF0.037037037037037035
aF0.2037037037037037
aa(lp1741
F0.4727272727272727
aF0.12727272727272726
aF0.4
aa(lp1742
F0.6801705756929638
aF0.04051172707889126
aF0.279317697228145
aa(lp1743
F0.6987951807228916
aF0.14457831325301204
aF0.1566265060240964
aa(lp1744
F0.5870445344129555
aF0.048582995951417005
aF0.3643724696356275
aa(lp1745
F0.8211382113821138
aF0.04878048780487805
aF0.13008130081300814
aa(lp1746
F0.4339622641509434
aF0.04716981132075472
aF0.5188679245283019
aa(lp1747
F0.7316455696202532
aF0.017721518987341773
aF0.25063291139240507
aa(lp1748
F0.4774193548387097
aF0.07741935483870968
aF0.44516129032258067
aa(lp1749
F0.3188405797101449
aF0.18840579710144928
aF0.4927536231884058
aa(lp1750
F0.7961165048543689
aF0.038834951456310676
aF0.1650485436893204
aa(lp1751
F0.6578947368421053
aF0.11842105263157894
aF0.2236842105263158
aa(lp1752
F0.2558139534883721
aF0.13953488372093023
aF0.6046511627906976
aa(lp1753
F0.5714285714285714
aF0.08333333333333333
aF0.34523809523809523
aa(lp1754
F0.6461538461538462
aF0.09230769230769231
aF0.26153846153846155
aa(lp1755
F0.3878504672897196
aF0.1588785046728972
aF0.4532710280373832
aa(lp1756
F0.48427672955974843
aF0.02830188679245283
aF0.48742138364779874
aa(lp1757
F0.5714285714285714
aF0.02857142857142857
aF0.4
aa(lp1758
F0.6379310344827587
aF0.11206896551724138
aF0.25
aa(lp1759
F0.44565217391304346
aF0.11956521739130435
aF0.43478260869565216
aa(lp1760
F0.488
aF0.104
aF0.408
aa(lp1761
F0.6179245283018868
aF0.054245283018867926
aF0.3278301886792453
aa(lp1762
F0.6648648648648648
aF0.14054054054054055
aF0.1945945945945946
aa(lp1763
F0.616822429906542
aF0.04205607476635514
aF0.3411214953271028
aa(lp1764
F0.6375
aF0.09375
aF0.26875
aa(lp1765
F0.7121212121212122
aF0.09090909090909091
aF0.19696969696969696
aa(lp1766
F0.5300546448087432
aF0.08196721311475409
aF0.3879781420765027
aa(lp1767
F0.5221674876847291
aF0.04433497536945813
aF0.43349753694581283
aa(lp1768
F0.6076923076923076
aF0.09230769230769231
aF0.3
aa(lp1769
F0.7025089605734767
aF0.08602150537634409
aF0.2114695340501792
aa(lp1770
F0.4878048780487805
aF0.17073170731707318
aF0.34146341463414637
aa(lp1771
F0.7058823529411765
aF0.1323529411764706
aF0.16176470588235295
aa(lp1772
F0.7941176470588235
aF0.058823529411764705
aF0.14705882352941177
aa(lp1773
F0.6990291262135923
aF0.13592233009708737
aF0.1650485436893204
aa(lp1774
F0.6599326599326599
aF0.037037037037037035
aF0.30303030303030304
aa(lp1775
F0.6833333333333333
aF0.06111111111111111
aF0.25555555555555554
aa(lp1776
F0.6065573770491803
aF0.13114754098360656
aF0.26229508196721313
aa(lp1777
F0.48514851485148514
aF0.039603960396039604
aF0.4752475247524752
aa(lp1778
F0.4755244755244755
aF0.05244755244755245
aF0.47202797202797203
aa(lp1779
F0.4148148148148148
aF0.05185185185185185
aF0.5333333333333333
aa(lp1780
F0.3103448275862069
aF0.27586206896551724
aF0.41379310344827586
aa(lp1781
F0.4888888888888889
aF0.08888888888888889
aF0.4222222222222222
aa(lp1782
F0.7317073170731707
aF0.056910569105691054
aF0.21138211382113822
aa(lp1783
F0.7458432304038005
aF0.021377672209026127
aF0.2327790973871734
aa(lp1784
F0.45569620253164556
aF0.17721518987341772
aF0.3670886075949367
aa(lp1785
F0.5851063829787234
aF0.1276595744680851
aF0.2872340425531915
aa(lp1786
F0.19318181818181818
aF0.23863636363636365
aF0.5681818181818182
aa(lp1787
F0.6286919831223629
aF0.08860759493670886
aF0.28270042194092826
aa(lp1788
F0.7313432835820896
aF0.029850746268656716
aF0.23880597014925373
aa(lp1789
F0.6166666666666667
aF0.044444444444444446
aF0.3388888888888889
aa(lp1790
F0.5892857142857143
aF0.08928571428571429
aF0.32142857142857145
aa(lp1791
F0.6901408450704225
aF0.07042253521126761
aF0.23943661971830985
aa(lp1792
F0.5365853658536586
aF0.17073170731707318
aF0.2926829268292683
aa(lp1793
F0.652542372881356
aF0.1016949152542373
aF0.2457627118644068
aa(lp1794
F0.536144578313253
aF0.1144578313253012
aF0.3493975903614458
aa(lp1795
F0.7852941176470588
aF0.07352941176470588
aF0.1411764705882353
aa(lp1796
F0.53125
aF0.10416666666666667
aF0.3645833333333333
aa(lp1797
F0.5035460992907801
aF0.0425531914893617
aF0.45390070921985815
aa(lp1798
F0.7718120805369127
aF0.11409395973154363
aF0.11409395973154363
aa(lp1799
F0.7261904761904762
aF0.1130952380952381
aF0.16071428571428573
aa(lp1800
F0.6436781609195402
aF0.10344827586206896
aF0.25287356321839083
aa(lp1801
F0.5488721804511278
aF0.09022556390977443
aF0.3609022556390977
aa(lp1802
F0.7692307692307693
aF0.05128205128205128
aF0.1794871794871795
aa(lp1803
F0.8089887640449438
aF0.06741573033707865
aF0.12359550561797752
aa(lp1804
F0.8882235528942116
aF0.011976047904191617
aF0.0998003992015968
aa(lp1805
F0.6075949367088608
aF0.05063291139240506
aF0.34177215189873417
aa(lp1806
F0.6725888324873096
aF0.050761421319796954
aF0.2766497461928934
aa(lp1807
F0.8515625
aF0.046875
aF0.1015625
aa(lp1808
F0.7865168539325843
aF0.10112359550561797
aF0.11235955056179775
aa(lp1809
F0.8721227621483376
aF0.03324808184143223
aF0.09462915601023018
aa(lp1810
F0.5833333333333334
aF0.16666666666666666
aF0.25
aa(lp1811
F0.57
aF0.056666666666666664
aF0.37333333333333335
aa(lp1812
F0.5510204081632653
aF0.05102040816326531
aF0.3979591836734694
aa(lp1813
F0.524390243902439
aF0.10975609756097561
aF0.36585365853658536
aa(lp1814
F0.734375
aF0.078125
aF0.1875
aa(lp1815
F0.7159090909090909
aF0.10227272727272728
aF0.18181818181818182
aa(lp1816
F0.8707627118644068
aF0.0423728813559322
aF0.08686440677966102
aa(lp1817
F0.6666666666666666
aF0.0425531914893617
aF0.2907801418439716
aa(lp1818
F0.4475806451612903
aF0.056451612903225805
aF0.4959677419354839
aa(lp1819
F0.7846153846153846
aF0.07692307692307693
aF0.13846153846153847
aa(lp1820
F0.6585365853658537
aF0.08536585365853659
aF0.25609756097560976
aa(lp1821
F0.5294117647058824
aF0.17647058823529413
aF0.29411764705882354
aa(lp1822
F0.6619718309859155
aF0.11267605633802817
aF0.22535211267605634
aa(lp1823
F0.7391304347826086
aF0.10869565217391304
aF0.15217391304347827
aa(lp1824
F0.5652173913043478
aF0.06719367588932806
aF0.3675889328063241
aa(lp1825
F0.6638655462184874
aF0.12184873949579832
aF0.21428571428571427
aa(lp1826
F0.5620915032679739
aF0.0457516339869281
aF0.39215686274509803
aa(lp1827
F0.7650602409638554
aF0.024096385542168676
aF0.21084337349397592
aa(lp1828
F0.4027777777777778
aF0.125
aF0.4722222222222222
aa(lp1829
F0.7281553398058253
aF0.07766990291262135
aF0.1941747572815534
aa(lp1830
F0.726890756302521
aF0.02100840336134454
aF0.25210084033613445
aa(lp1831
F0.6882352941176471
aF0.03529411764705882
aF0.27647058823529413
aa(lp1832
F0.7032967032967034
aF0.08241758241758242
aF0.21428571428571427
aa(lp1833
F0.6811594202898551
aF0.0821256038647343
aF0.23671497584541062
aa(lp1834
F0.6438356164383562
aF0.04794520547945205
aF0.3082191780821918
aa(lp1835
F0.7293233082706767
aF0.05263157894736842
aF0.21804511278195488
aa(lp1836
F0.7209302325581395
aF0.09302325581395349
aF0.18604651162790697
aa(lp1837
F0.5180722891566265
aF0.13253012048192772
aF0.3493975903614458
aa(lp1838
F0.2987012987012987
aF0.24675324675324675
aF0.45454545454545453
aa(lp1839
F0.8615384615384616
aF0.05384615384615385
aF0.08461538461538462
aa(lp1840
F0.6893203883495146
aF0.0970873786407767
aF0.21359223300970873
aa(lp1841
F0.5111111111111111
aF0.4
aF0.08888888888888889
aa(lp1842
F0.7323943661971831
aF0.11267605633802817
aF0.15492957746478872
aa(lp1843
F0.6666666666666666
aF0.07407407407407407
aF0.25925925925925924
aa(lp1844
F0.4481707317073171
aF0.13109756097560976
aF0.42073170731707316
aa(lp1845
F0.5818181818181818
aF0.09090909090909091
aF0.32727272727272727
aa(lp1846
F0.6444444444444445
aF0.022222222222222223
aF0.3333333333333333
aa(lp1847
F0.4166666666666667
aF0.052083333333333336
aF0.53125
aa(lp1848
F0.5652173913043478
aF0.043478260869565216
aF0.391304347826087
aa(lp1849
F0.7711442786069652
aF0.06467661691542288
aF0.16417910447761194
aa(lp1850
F0.7659574468085106
aF0.06382978723404255
aF0.1702127659574468
aa(lp1851
F0.7307692307692307
aF0.04487179487179487
aF0.22435897435897437
aa(lp1852
F0.851063829787234
aF0.026595744680851064
aF0.12234042553191489
aa(lp1853
F0.75
aF0.03125
aF0.21875
aa(lp1854
F0.5786290322580645
aF0.05846774193548387
aF0.3629032258064516
aa(lp1855
F0.603448275862069
aF0.20689655172413793
aF0.1896551724137931
aa(lp1856
F0.6018518518518519
aF0.08333333333333333
aF0.3148148148148148
aa(lp1857
F0.7724137931034483
aF0.04827586206896552
aF0.1793103448275862
aa(lp1858
F0.8016877637130801
aF0.03375527426160337
aF0.16455696202531644
aa(lp1859
F0.8529411764705882
aF0.058823529411764705
aF0.08823529411764706
aa(lp1860
F0.4375
aF0.1875
aF0.375
aa(lp1861
F0.6342592592592593
aF0.09259259259259259
aF0.27314814814814814
aa(lp1862
F0.562962962962963
aF0.06296296296296296
aF0.37407407407407406
aa(lp1863
F0.7230769230769231
aF0.09230769230769231
aF0.18461538461538463
aa(lp1864
F0.20994475138121546
aF0.2265193370165746
aF0.56353591160221
aa(lp1865
F0.654891304347826
aF0.03804347826086957
aF0.3070652173913043
aa(lp1866
F0.5769230769230769
aF0.21153846153846154
aF0.21153846153846154
aa(lp1867
F0.6447368421052632
aF0.14473684210526316
aF0.21052631578947367
aa(lp1868
F0.5581395348837209
aF0.11627906976744186
aF0.32558139534883723
aa(lp1869
F0.875
aF0.05357142857142857
aF0.07142857142857142
aa(lp1870
F0.875
aF0.056818181818181816
aF0.06818181818181818
aa(lp1871
F0.8072562358276644
aF0.04308390022675737
aF0.14965986394557823
aa(lp1872
F0.416
aF0.04
aF0.544
aa(lp1873
F0.717948717948718
aF0.1282051282051282
aF0.15384615384615385
aa(lp1874
F0.7898089171974523
aF0.10191082802547771
aF0.10828025477707007
aa(lp1875
F0.9039301310043668
aF0.03711790393013101
aF0.05895196506550218
aa(lp1876
F0.48333333333333334
aF0.09166666666666666
aF0.425
aa(lp1877
F0.7283950617283951
aF0.14814814814814814
aF0.12345679012345678
aa(lp1878
F0.5357142857142857
aF0.10714285714285714
aF0.35714285714285715
aa(lp1879
F0.6295081967213115
aF0.04590163934426229
aF0.32459016393442625
aa(lp1880
F0.3939393939393939
aF0.42424242424242425
aF0.18181818181818182
aa(lp1881
F0.5
aF0.08620689655172414
aF0.41379310344827586
aa(lp1882
F0.2948717948717949
aF0.038461538461538464
aF0.6666666666666666
aa(lp1883
F0.647887323943662
aF0.11267605633802817
aF0.23943661971830985
aa(lp1884
F0.4523809523809524
aF0.23809523809523808
aF0.30952380952380953
aa(lp1885
F0.8047337278106509
aF0.023668639053254437
aF0.17159763313609466
aa(lp1886
F0.589041095890411
aF0.0684931506849315
aF0.3424657534246575
aa(lp1887
F0.5992217898832685
aF0.19455252918287938
aF0.20622568093385213
aa(lp1888
F0.5401069518716578
aF0.08021390374331551
aF0.37967914438502676
aa(lp1889
F0.7155172413793104
aF0.03879310344827586
aF0.24568965517241378
aa(lp1890
F0.7987421383647799
aF0.08176100628930817
aF0.11949685534591195
aa(lp1891
F0.4222222222222222
aF0.044444444444444446
aF0.5333333333333333
aa(lp1892
F0.952054794520548
aF0.00684931506849315
aF0.0410958904109589
aa(lp1893
F0.36538461538461536
aF0.15384615384615385
aF0.4807692307692308
aa(lp1894
F0.5729166666666666
aF0.15625
aF0.2708333333333333
aa(lp1895
F0.7102803738317757
aF0.04672897196261682
aF0.24299065420560748
aa(lp1896
F0.8083333333333333
aF0.016666666666666666
aF0.175
aa(lp1897
F0.8376068376068376
aF0.09401709401709402
aF0.06837606837606838
aa(lp1898
F0.6649746192893401
aF0.06091370558375635
aF0.27411167512690354
aa(lp1899
F0.5369127516778524
aF0.2483221476510067
aF0.21476510067114093
aa(lp1900
F0.7027027027027027
aF0.10810810810810811
aF0.1891891891891892
aa(lp1901
F0.7128712871287128
aF0.09306930693069307
aF0.19405940594059407
aa(lp1902
F0.7755102040816326
aF0.05102040816326531
aF0.17346938775510204
aa(lp1903
F0.7706422018348624
aF0.07339449541284404
aF0.1559633027522936
aa(lp1904
F0.49411764705882355
aF0.12941176470588237
aF0.3764705882352941
aa(lp1905
F0.5294117647058824
aF0.08823529411764706
aF0.38235294117647056
aa(lp1906
F0.706951871657754
aF0.09518716577540107
aF0.19786096256684493
aa(lp1907
F0.8573551263001485
aF0.03566121842496285
aF0.10698365527488855
aa(lp1908
F0.8258258258258259
aF0.06006006006006006
aF0.11411411411411411
aa(lp1909
F0.7997416020671835
aF0.04263565891472868
aF0.15762273901808785
aa(lp1910
F0.7209775967413442
aF0.032586558044806514
aF0.24643584521384929
aa(lp1911
F0.41605839416058393
aF0.043795620437956206
aF0.5401459854014599
aa(lp1912
F0.5658914728682171
aF0.07751937984496124
aF0.35658914728682173
aa(lp1913
F0.6288659793814433
aF0.10309278350515463
aF0.26804123711340205
aa(lp1914
F0.3333333333333333
aF0.2
aF0.4666666666666667
aa(lp1915
F0.4672131147540984
aF0.05737704918032787
aF0.47540983606557374
aa(lp1916
F0.5921052631578947
aF0.11842105263157894
aF0.2894736842105263
aa(lp1917
F0.5308056872037915
aF0.02843601895734597
aF0.44075829383886256
aa(lp1918
F0.6448598130841121
aF0.1308411214953271
aF0.22429906542056074
aa(lp1919
F0.6862745098039216
aF0.08823529411764706
aF0.22549019607843138
aa(lp1920
F0.6292134831460674
aF0.1797752808988764
aF0.19101123595505617
aa(lp1921
F0.6714285714285714
aF0.1
aF0.22857142857142856
aa(lp1922
F0.696969696969697
aF0.07575757575757576
aF0.22727272727272727
aa(lp1923
F0.46511627906976744
aF0.23255813953488372
aF0.3023255813953488
aa(lp1924
F0.8877551020408163
aF0.01020408163265306
aF0.10204081632653061
aa(lp1925
F0.7661290322580645
aF0.10483870967741936
aF0.12903225806451613
aa(lp1926
F0.7898089171974523
aF0.08917197452229299
aF0.12101910828025478
aa(lp1927
F0.6216216216216216
aF0.2702702702702703
aF0.10810810810810811
aa(lp1928
F0.6239316239316239
aF0.06837606837606838
aF0.3076923076923077
aa(lp1929
F0.8333333333333334
aF0.0
aF0.16666666666666666
aa(lp1930
F0.6666666666666666
aF0.07894736842105263
aF0.2543859649122807
aa(lp1931
F0.6346153846153846
aF0.125
aF0.2403846153846154
aa(lp1932
F0.6
aF0.14
aF0.26
aa(lp1933
F0.7547974413646056
aF0.05970149253731343
aF0.18550106609808104
aa(lp1934
F0.7058823529411765
aF0.12941176470588237
aF0.16470588235294117
aa(lp1935
F0.65
aF0.05
aF0.3
aa(lp1936
F0.3472222222222222
aF0.3194444444444444
aF0.3333333333333333
aa(lp1937
F0.40860215053763443
aF0.12903225806451613
aF0.46236559139784944
aa(lp1938
F0.9090909090909091
aF0.04
aF0.05090909090909091
aa(lp1939
F0.8751592356687898
aF0.02165605095541401
aF0.10318471337579618
aa(lp1940
F0.6506024096385542
aF0.10843373493975904
aF0.24096385542168675
aa(lp1941
F0.379746835443038
aF0.189873417721519
aF0.43037974683544306
aa(lp1942
F0.3673469387755102
aF0.19387755102040816
aF0.4387755102040816
aa(lp1943
F0.7352941176470589
aF0.12941176470588237
aF0.13529411764705881
aa(lp1944
F0.7831325301204819
aF0.08433734939759036
aF0.13253012048192772
aa(lp1945
F0.6027397260273972
aF0.0547945205479452
aF0.3424657534246575
aa(lp1946
F0.6551724137931034
aF0.12643678160919541
aF0.21839080459770116
aa(lp1947
F0.6799468791500664
aF0.08764940239043825
aF0.23240371845949534
aa(lp1948
F0.9152892561983471
aF0.024793388429752067
aF0.05991735537190083
aa(lp1949
F0.3050847457627119
aF0.22033898305084745
aF0.4745762711864407
aa(lp1950
F0.8
aF0.08571428571428572
aF0.11428571428571428
aa(lp1951
F0.39705882352941174
aF0.23529411764705882
aF0.36764705882352944
aa(lp1952
F0.7130434782608696
aF0.11304347826086956
aF0.17391304347826086
aa(lp1953
F0.7120921305182342
aF0.05182341650671785
aF0.236084452975048
aa(lp1954
F0.6956521739130435
aF0.14492753623188406
aF0.15942028985507245
aa(lp1955
F0.7031700288184438
aF0.011527377521613832
aF0.28530259365994237
aa(lp1956
F0.7027027027027027
aF0.11486486486486487
aF0.18243243243243243
aa(lp1957
F0.7222222222222222
aF0.08888888888888889
aF0.18888888888888888
aa(lp1958
F0.893687707641196
aF0.026578073089700997
aF0.07973421926910298
aa(lp1959
F0.7451923076923077
aF0.10576923076923077
aF0.14903846153846154
aa(lp1960
F0.671875
aF0.140625
aF0.1875
aa(lp1961
F0.8511904761904762
aF0.041666666666666664
aF0.10714285714285714
aa(lp1962
F0.8412698412698413
aF0.031746031746031744
aF0.12698412698412698
aa(lp1963
F0.4528301886792453
aF0.16981132075471697
aF0.37735849056603776
aa(lp1964
F0.6666666666666666
aF0.05128205128205128
aF0.28205128205128205
aa(lp1965
F0.43209876543209874
aF0.2222222222222222
aF0.345679012345679
aa(lp1966
F0.6231884057971014
aF0.057971014492753624
aF0.3188405797101449
aa(lp1967
F0.676923076923077
aF0.06923076923076923
aF0.25384615384615383
aa(lp1968
F0.5405405405405406
aF0.2702702702702703
aF0.1891891891891892
aa(lp1969
F0.7572614107883817
aF0.06431535269709543
aF0.17842323651452283
aa(lp1970
F0.7564102564102564
aF0.07692307692307693
aF0.16666666666666666
aa(lp1971
F0.6222826086956522
aF0.043478260869565216
aF0.3342391304347826
aa(lp1972
F0.75
aF0.08333333333333333
aF0.16666666666666666
aa(lp1973
F0.34285714285714286
aF0.11428571428571428
aF0.5428571428571428
aa(lp1974
F0.4074074074074074
aF0.07407407407407407
aF0.5185185185185185
aa(lp1975
F0.5609756097560976
aF0.04878048780487805
aF0.3902439024390244
aa(lp1976
F0.5
aF0.16666666666666666
aF0.3333333333333333
aa(lp1977
F0.7212121212121212
aF0.07878787878787878
aF0.2
aa(lp1978
F0.7433628318584071
aF0.04424778761061947
aF0.21238938053097345
aa(lp1979
F0.5102040816326531
aF0.20408163265306123
aF0.2857142857142857
aa(lp1980
F0.912621359223301
aF0.04854368932038835
aF0.038834951456310676
aa(lp1981
F0.5223880597014925
aF0.1791044776119403
aF0.29850746268656714
aa(lp1982
F0.6660117878192534
aF0.0412573673870334
aF0.29273084479371314
aa(lp1983
F0.9
aF0.05333333333333334
aF0.04666666666666667
aa(lp1984
F0.6607142857142857
aF0.017857142857142856
aF0.32142857142857145
aa(lp1985
F0.38613861386138615
aF0.0594059405940594
aF0.5544554455445545
aa(lp1986
F0.864476386036961
aF0.022587268993839837
aF0.11293634496919917
aa(lp1987
F0.676056338028169
aF0.09859154929577464
aF0.22535211267605634
aa(lp1988
F0.5644599303135889
aF0.11149825783972125
aF0.3240418118466899
aa(lp1989
F0.8260869565217391
aF0.028985507246376812
aF0.14492753623188406
aa(lp1990
F0.7410714285714286
aF0.0625
aF0.19642857142857142
aa(lp1991
F0.7843137254901961
aF0.032679738562091505
aF0.1830065359477124
aa(lp1992
F0.7969151670951157
aF0.05141388174807198
aF0.15167095115681234
aa(lp1993
F0.7547169811320755
aF0.0440251572327044
aF0.20125786163522014
aa(lp1994
F0.40963855421686746
aF0.18072289156626506
aF0.40963855421686746
aa(lp1995
F0.68
aF0.03111111111111111
aF0.28888888888888886
aa(lp1996
F0.5705128205128205
aF0.09294871794871795
aF0.33653846153846156
aa(lp1997
F0.6666666666666666
aF0.10328638497652583
aF0.2300469483568075
aa(lp1998
F0.5387323943661971
aF0.02464788732394366
aF0.43661971830985913
aa(lp1999
F0.5175438596491229
aF0.12280701754385964
aF0.35964912280701755
aa(lp2000
F0.34306569343065696
aF0.19708029197080293
aF0.45985401459854014
aa(lp2001
F0.9183673469387755
aF0.01020408163265306
aF0.07142857142857142
aa(lp2002
F0.631578947368421
aF0.22807017543859648
aF0.14035087719298245
aa(lp2003
F0.6
aF0.18181818181818182
aF0.21818181818181817
aa(lp2004
F0.4444444444444444
aF0.13333333333333333
aF0.4222222222222222
aa(lp2005
F0.7248677248677249
aF0.021164021164021163
aF0.25396825396825395
aa(lp2006
F0.655367231638418
aF0.13559322033898305
aF0.20903954802259886
aa(lp2007
F0.6119402985074627
aF0.16417910447761194
aF0.22388059701492538
aa(lp2008
F0.536144578313253
aF0.07228915662650602
aF0.39156626506024095
aa(lp2009
F0.7219020172910663
aF0.05763688760806916
aF0.22046109510086456
aa(lp2010
F0.7055449330783938
aF0.10707456978967496
aF0.18738049713193117
aa(lp2011
F0.6666666666666666
aF0.029411764705882353
aF0.30392156862745096
aa(lp2012
F0.5380577427821522
aF0.06824146981627296
aF0.3937007874015748
aa(lp2013
F0.5871559633027523
aF0.08256880733944955
aF0.3302752293577982
aa(lp2014
F0.6
aF0.22857142857142856
aF0.17142857142857143
aa(lp2015
F0.4406779661016949
aF0.06779661016949153
aF0.4915254237288136
aa(lp2016
F0.6216216216216216
aF0.05405405405405406
aF0.32432432432432434
aa(lp2017
F0.5882352941176471
aF0.21568627450980393
aF0.19607843137254902
aa(lp2018
F0.7922077922077922
aF0.09090909090909091
aF0.11688311688311688
aa(lp2019
F0.4472049689440994
aF0.07142857142857142
aF0.4813664596273292
aa(lp2020
F0.8015267175572519
aF0.06870229007633588
aF0.1297709923664122
aa(lp2021
F0.9121621621621622
aF0.06756756756756757
aF0.02027027027027027
aa(lp2022
F0.7931034482758621
aF0.03793103448275862
aF0.16896551724137931
aa(lp2023
F0.6007462686567164
aF0.04477611940298507
aF0.35447761194029853
aa(lp2024
F0.776536312849162
aF0.0782122905027933
aF0.1452513966480447
aa(lp2025
F0.8444444444444444
aF0.03333333333333333
aF0.12222222222222222
aa(lp2026
F0.6861979166666666
aF0.13020833333333334
aF0.18359375
aa(lp2027
F0.5882352941176471
aF0.16470588235294117
aF0.24705882352941178
aa(lp2028
F0.6506024096385542
aF0.04819277108433735
aF0.30120481927710846
aa(lp2029
F0.6994219653179191
aF0.09826589595375723
aF0.2023121387283237
aa(lp2030
F0.6617647058823529
aF0.058823529411764705
aF0.27941176470588236
aa(lp2031
F0.7058823529411765
aF0.09803921568627451
aF0.19607843137254902
aa(lp2032
F0.7692307692307693
aF0.02564102564102564
aF0.20512820512820512
aa(lp2033
F0.5408163265306123
aF0.10204081632653061
aF0.35714285714285715
aa(lp2034
F0.7764976958525346
aF0.03686635944700461
aF0.18663594470046083
aa(lp2035
F0.7021276595744681
aF0.06382978723404255
aF0.23404255319148937
aa(lp2036
F0.5423728813559322
aF0.11864406779661017
aF0.3389830508474576
aa(lp2037
F0.8870967741935484
aF0.03225806451612903
aF0.08064516129032258
aa(lp2038
F0.6595744680851063
aF0.1276595744680851
aF0.2127659574468085
aa(lp2039
F0.7767857142857143
aF0.08928571428571429
aF0.13392857142857142
aa(lp2040
F0.9176470588235294
aF0.01764705882352941
aF0.06470588235294118
aa(lp2041
F0.8403361344537815
aF0.09243697478991597
aF0.06722689075630252
aa(lp2042
F0.7692307692307693
aF0.06593406593406594
aF0.16483516483516483
aa(lp2043
F0.5070422535211268
aF0.056338028169014086
aF0.43661971830985913
aa(lp2044
F0.7352941176470589
aF0.10294117647058823
aF0.16176470588235295
aa(lp2045
F0.6067415730337079
aF0.07865168539325842
aF0.3146067415730337
aa(lp2046
F0.43790849673202614
aF0.1437908496732026
aF0.41830065359477125
aa(lp2047
F0.8545454545454545
aF0.03636363636363636
aF0.10909090909090909
aa(lp2048
F0.5755395683453237
aF0.1079136690647482
aF0.31654676258992803
aa(lp2049
F0.7378640776699029
aF0.06796116504854369
aF0.1941747572815534
aa(lp2050
F0.5540540540540541
aF0.1891891891891892
aF0.25675675675675674
aa(lp2051
F0.7768924302788844
aF0.06374501992031872
aF0.1593625498007968
aa(lp2052
F0.578125
aF0.052083333333333336
aF0.3697916666666667
aa(lp2053
F0.7530864197530864
aF0.08641975308641975
aF0.16049382716049382
aa(lp2054
F0.7682926829268293
aF0.036585365853658534
aF0.1951219512195122
aa(lp2055
F0.6838235294117647
aF0.07352941176470588
aF0.2426470588235294
aa(lp2056
F0.75
aF0.06818181818181818
aF0.18181818181818182
aa(lp2057
F0.72
aF0.16
aF0.12
aa(lp2058
F0.56
aF0.1111111111111111
aF0.3288888888888889
aa(lp2059
F0.8441558441558441
aF0.03896103896103896
aF0.11688311688311688
aa(lp2060
F0.7341772151898734
aF0.02531645569620253
aF0.24050632911392406
aa(lp2061
F0.7815126050420168
aF0.04201680672268908
aF0.17647058823529413
aa(lp2062
F0.4090909090909091
aF0.22727272727272727
aF0.36363636363636365
aa(lp2063
F0.7727272727272727
aF0.045454545454545456
aF0.18181818181818182
aa(lp2064
F0.7123287671232876
aF0.1095890410958904
aF0.1780821917808219
aa(lp2065
F0.8384615384615385
aF0.06153846153846154
aF0.1
aa(lp2066
F0.5073529411764706
aF0.09191176470588236
aF0.4007352941176471
aa(lp2067
F0.5061728395061729
aF0.030864197530864196
aF0.46296296296296297
aa(lp2068
F0.7309941520467836
aF0.05263157894736842
aF0.21637426900584794
aa(lp2069
F0.6911764705882353
aF0.058823529411764705
aF0.25
aa(lp2070
F0.32407407407407407
aF0.25
aF0.42592592592592593
aa(lp2071
F0.6749116607773852
aF0.028268551236749116
aF0.2968197879858657
aa(lp2072
F0.6356589147286822
aF0.07364341085271318
aF0.29069767441860467
aa(lp2073
F0.674712643678161
aF0.034482758620689655
aF0.2908045977011494
aa(lp2074
F0.8163265306122449
aF0.08163265306122448
aF0.10204081632653061
aa(lp2075
F0.5
aF0.045454545454545456
aF0.45454545454545453
aa(lp2076
F0.8728813559322034
aF0.03954802259887006
aF0.08757062146892655
aa(lp2077
F0.5121951219512195
aF0.051490514905149054
aF0.4363143631436314
aa(lp2078
F0.8466257668711656
aF0.049079754601226995
aF0.10429447852760736
aa(lp2079
F0.7784090909090909
aF0.07102272727272728
aF0.15056818181818182
aa(lp2080
F0.7280334728033473
aF0.05578800557880056
aF0.21617852161785217
aa(lp2081
F0.6065573770491803
aF0.04918032786885246
aF0.3442622950819672
aa(lp2082
F0.8360655737704918
aF0.08196721311475409
aF0.08196721311475409
aa(lp2083
F0.7159090909090909
aF0.13636363636363635
aF0.14772727272727273
aa(lp2084
F0.5454545454545454
aF0.022727272727272728
aF0.4318181818181818
aa(lp2085
F0.4262295081967213
aF0.03278688524590164
aF0.5409836065573771
aa(lp2086
F0.6847826086956522
aF0.08695652173913043
aF0.22826086956521738
aa(lp2087
F0.7290448343079922
aF0.021442495126705652
aF0.24951267056530213
aa(lp2088
F0.5412844036697247
aF0.06422018348623854
aF0.3944954128440367
aa(lp2089
F0.5714285714285714
aF0.16326530612244897
aF0.2653061224489796
aa(lp2090
F0.6153846153846154
aF0.1076923076923077
aF0.27692307692307694
aa(lp2091
F0.5571428571428572
aF0.12142857142857143
aF0.32142857142857145
aa(lp2092
F0.8303571428571429
aF0.11607142857142858
aF0.05357142857142857
aa(lp2093
F0.5496688741721855
aF0.07947019867549669
aF0.3708609271523179
aa(lp2094
F0.8680555555555556
aF0.03125
aF0.10069444444444445
aa(lp2095
F0.4714285714285714
aF0.14285714285714285
aF0.38571428571428573
aa(lp2096
F0.7878787878787878
aF0.07575757575757576
aF0.13636363636363635
aa(lp2097
F0.615
aF0.18
aF0.205
aa(lp2098
F0.75
aF0.07142857142857142
aF0.17857142857142858
aa(lp2099
F0.5223880597014925
aF0.08955223880597014
aF0.3880597014925373
aa(lp2100
F0.7068965517241379
aF0.11206896551724138
aF0.1810344827586207
aa(lp2101
F0.8040540540540541
aF0.06756756756756757
aF0.12837837837837837
aa(lp2102
F0.5394736842105263
aF0.14473684210526316
aF0.3157894736842105
aa(lp2103
F0.5384615384615384
aF0.28205128205128205
aF0.1794871794871795
aa(lp2104
F0.7226666666666667
aF0.036
aF0.24133333333333334
aa(lp2105
F0.7741935483870968
aF0.043010752688172046
aF0.1827956989247312
aa(lp2106
F0.8037383177570093
aF0.018691588785046728
aF0.17757009345794392
aa(lp2107
F0.576271186440678
aF0.11864406779661017
aF0.3050847457627119
aa(lp2108
F0.6648199445983379
aF0.0221606648199446
aF0.31301939058171746
aa(lp2109
F0.6872586872586872
aF0.11196911196911197
aF0.20077220077220076
aa(lp2110
F0.6863406408094435
aF0.03499156829679595
aF0.27866779089376054
aa(lp2111
F0.6470588235294118
aF0.23529411764705882
aF0.11764705882352941
aa(lp2112
F0.684640522875817
aF0.042483660130718956
aF0.272875816993464
aa(lp2113
F0.6060606060606061
aF0.2727272727272727
aF0.12121212121212122
aa(lp2114
F0.5657142857142857
aF0.12
aF0.3142857142857143
aa(lp2115
F0.4931506849315068
aF0.273972602739726
aF0.2328767123287671
aa(lp2116
F0.676595744680851
aF0.07446808510638298
aF0.24893617021276596
aa(lp2117
F0.6197183098591549
aF0.16901408450704225
aF0.2112676056338028
aa(lp2118
F0.5471698113207547
aF0.07547169811320754
aF0.37735849056603776
aa(lp2119
F0.8841463414634146
aF0.036585365853658534
aF0.07926829268292683
aa(lp2120
F0.6432432432432432
aF0.0918918918918919
aF0.2648648648648649
aa(lp2121
F0.28378378378378377
aF0.04054054054054054
aF0.6756756756756757
aa(lp2122
F0.5511811023622047
aF0.11023622047244094
aF0.33858267716535434
aa(lp2123
F0.49122807017543857
aF0.15789473684210525
aF0.3508771929824561
aa(lp2124
F0.7369614512471655
aF0.07256235827664399
aF0.19047619047619047
aa(lp2125
F0.5806451612903226
aF0.14516129032258066
aF0.27419354838709675
aa(lp2126
F0.46153846153846156
aF0.1978021978021978
aF0.34065934065934067
aa(lp2127
F0.6203703703703703
aF0.19444444444444445
aF0.18518518518518517
aa(lp2128
F0.44525547445255476
aF0.0364963503649635
aF0.5182481751824818
aa(lp2129
F0.5273972602739726
aF0.273972602739726
aF0.19863013698630136
aa(lp2130
F0.22115384615384615
aF0.15384615384615385
aF0.625
aa(lp2131
F0.6821917808219178
aF0.10410958904109589
aF0.2136986301369863
aa(lp2132
F0.6591549295774648
aF0.04788732394366197
aF0.29295774647887324
aa(lp2133
F0.788235294117647
aF0.047058823529411764
aF0.16470588235294117
aa(lp2134
F0.8076923076923077
aF0.125
aF0.0673076923076923
aa(lp2135
F0.4583333333333333
aF0.10416666666666667
aF0.4375
aa(lp2136
F0.5694444444444444
aF0.05555555555555555
aF0.375
aa(lp2137
F0.8756906077348067
aF0.024861878453038673
aF0.09944751381215469
aa(lp2138
F0.84688995215311
aF0.05741626794258373
aF0.09569377990430622
aa(lp2139
F0.7
aF0.125
aF0.175
aa(lp2140
F0.5360824742268041
aF0.09278350515463918
aF0.3711340206185567
aa(lp2141
F0.7139423076923077
aF0.03365384615384615
aF0.25240384615384615
aa(lp2142
F0.8632478632478633
aF0.017094017094017096
aF0.11965811965811966
aa(lp2143
F0.3870967741935484
aF0.24193548387096775
aF0.3709677419354839
aa(lp2144
F0.6813725490196079
aF0.06862745098039216
aF0.25
aa(lp2145
F0.9240506329113924
aF0.012658227848101266
aF0.06329113924050633
aa(lp2146
F0.5232974910394266
aF0.0931899641577061
aF0.3835125448028674
aa(lp2147
F0.7416666666666667
aF0.11666666666666667
aF0.14166666666666666
aa(lp2148
F0.5977011494252874
aF0.04597701149425287
aF0.3563218390804598
aa(lp2149
F0.49693251533742333
aF0.11042944785276074
aF0.39263803680981596
aa(lp2150
F0.58
aF0.095
aF0.325
aa(lp2151
F0.6436781609195402
aF0.05747126436781609
aF0.2988505747126437
aa(lp2152
F0.6482758620689655
aF0.0896551724137931
aF0.2620689655172414
aa(lp2153
F0.8040540540540541
aF0.02702702702702703
aF0.16891891891891891
aa(lp2154
F0.6148148148148148
aF0.08148148148148149
aF0.3037037037037037
aa(lp2155
F0.475
aF0.10833333333333334
aF0.4166666666666667
aa(lp2156
F0.7745098039215687
aF0.11764705882352941
aF0.10784313725490197
aa(lp2157
F0.7351351351351352
aF0.07567567567567568
aF0.1891891891891892
aa(lp2158
F0.8231884057971014
aF0.06086956521739131
aF0.11594202898550725
aa(lp2159
F0.42162162162162165
aF0.15135135135135136
aF0.42702702702702705
aa(lp2160
F0.5512820512820513
aF0.10256410256410256
aF0.34615384615384615
aa(lp2161
F0.5185185185185185
aF0.09259259259259259
aF0.3888888888888889
aa(lp2162
F0.6914285714285714
aF0.08
aF0.22857142857142856
aa(lp2163
F0.7625
aF0.125
aF0.1125
aa(lp2164
F0.6442307692307693
aF0.11538461538461539
aF0.2403846153846154
aa(lp2165
F0.6946107784431138
aF0.0658682634730539
aF0.23952095808383234
aa(lp2166
F0.6503496503496503
aF0.13286713286713286
aF0.21678321678321677
aa(lp2167
F0.8857142857142857
aF0.03333333333333333
aF0.08095238095238096
aa(lp2168
F0.6111111111111112
aF0.12962962962962962
aF0.25925925925925924
aa(lp2169
F0.23809523809523808
aF0.14285714285714285
aF0.6190476190476191
aa(lp2170
F0.21621621621621623
aF0.2702702702702703
aF0.5135135135135135
aa(lp2171
F0.04225352112676056
aF0.09154929577464789
aF0.8661971830985915
aa(lp2172
F0.3314917127071823
aF0.10497237569060773
aF0.56353591160221
aa(lp2173
F0.21052631578947367
aF0.09210526315789473
aF0.6973684210526315
aa(lp2174
F0.12222222222222222
aF0.07777777777777778
aF0.8
aa(lp2175
F0.20481927710843373
aF0.060240963855421686
aF0.7349397590361446
aa(lp2176
F0.088
aF0.224
aF0.688
aa(lp2177
F0.2631578947368421
aF0.10526315789473684
aF0.631578947368421
aa(lp2178
F0.265625
aF0.078125
aF0.65625
aa(lp2179
F0.12903225806451613
aF0.1774193548387097
aF0.6935483870967742
aa(lp2180
F0.13846153846153847
aF0.2
aF0.6615384615384615
aa(lp2181
F0.08333333333333333
aF0.19444444444444445
aF0.7222222222222222
aa(lp2182
F0.11682242990654206
aF0.17289719626168223
aF0.7102803738317757
aa(lp2183
F0.15853658536585366
aF0.24390243902439024
aF0.5975609756097561
aa(lp2184
F0.12418300653594772
aF0.10457516339869281
aF0.7712418300653595
aa(lp2185
F0.26119402985074625
aF0.12686567164179105
aF0.6119402985074627
aa(lp2186
F0.11515151515151516
aF0.07272727272727272
aF0.8121212121212121
aa(lp2187
F0.2786885245901639
aF0.07650273224043716
aF0.644808743169399
aa(lp2188
F0.475
aF0.175
aF0.35
aa(lp2189
F0.16393442622950818
aF0.06557377049180328
aF0.7704918032786885
aa(lp2190
F0.08928571428571429
aF0.22321428571428573
aF0.6875
aa(lp2191
F0.09243697478991597
aF0.08403361344537816
aF0.8235294117647058
aa(lp2192
F0.1927710843373494
aF0.1927710843373494
aF0.6144578313253012
aa(lp2193
F0.22580645161290322
aF0.08064516129032258
aF0.6935483870967742
aa(lp2194
F0.19387755102040816
aF0.04081632653061224
aF0.7653061224489796
aa(lp2195
F0.28888888888888886
aF0.2222222222222222
aF0.4888888888888889
aa(lp2196
F0.21212121212121213
aF0.18181818181818182
aF0.6060606060606061
aa(lp2197
F0.19170984455958548
aF0.05181347150259067
aF0.7564766839378239
aa(lp2198
F0.2153846153846154
aF0.05384615384615385
aF0.7307692307692307
aa(lp2199
F0.11538461538461539
aF0.04395604395604396
aF0.8406593406593407
aa(lp2200
F0.22077922077922077
aF0.2727272727272727
aF0.5064935064935064
aa(lp2201
F0.14388489208633093
aF0.17266187050359713
aF0.6834532374100719
aa(lp2202
F0.13278008298755187
aF0.08298755186721991
aF0.7842323651452282
aa(lp2203
F0.5
aF0.0546875
aF0.4453125
aa(lp2204
F0.13636363636363635
aF0.13636363636363635
aF0.7272727272727273
aa(lp2205
F0.5142857142857142
aF0.04
aF0.44571428571428573
aa(lp2206
F0.23469387755102042
aF0.1836734693877551
aF0.5816326530612245
aa(lp2207
F0.17582417582417584
aF0.01098901098901099
aF0.8131868131868132
aa(lp2208
F0.028985507246376812
aF0.15942028985507245
aF0.8115942028985508
aa(lp2209
F0.31666666666666665
aF0.05
aF0.6333333333333333
aa(lp2210
F0.25925925925925924
aF0.07407407407407407
aF0.6666666666666666
aa(lp2211
F0.2619047619047619
aF0.08333333333333333
aF0.6547619047619048
aa(lp2212
F0.23529411764705882
aF0.08823529411764706
aF0.6764705882352942
aa(lp2213
F0.2623762376237624
aF0.0891089108910891
aF0.6485148514851485
aa(lp2214
F0.15942028985507245
aF0.07246376811594203
aF0.7681159420289855
aa(lp2215
F0.3829787234042553
aF0.0425531914893617
aF0.574468085106383
aa(lp2216
F0.13291139240506328
aF0.056962025316455694
aF0.810126582278481
aa(lp2217
F0.26666666666666666
aF0.26666666666666666
aF0.4666666666666667
aa(lp2218
F0.25806451612903225
aF0.27419354838709675
aF0.46774193548387094
aa(lp2219
F0.21019108280254778
aF0.12101910828025478
aF0.6687898089171974
aa(lp2220
F0.18562874251497005
aF0.12574850299401197
aF0.688622754491018
aa(lp2221
F0.24545454545454545
aF0.12727272727272726
aF0.6272727272727273
aa(lp2222
F0.10727969348659004
aF0.11877394636015326
aF0.7739463601532567
aa(lp2223
F0.17391304347826086
aF0.14130434782608695
aF0.6847826086956522
aa(lp2224
F0.32142857142857145
aF0.27380952380952384
aF0.40476190476190477
aa(lp2225
F0.09821428571428571
aF0.21428571428571427
aF0.6875
aa(lp2226
F0.235
aF0.14
aF0.625
aa(lp2227
F0.20318725099601595
aF0.0796812749003984
aF0.7171314741035857
aa(lp2228
F0.17073170731707318
aF0.07804878048780488
aF0.751219512195122
aa(lp2229
F0.18840579710144928
aF0.07246376811594203
aF0.7391304347826086
aa(lp2230
F0.20454545454545456
aF0.11363636363636363
aF0.6818181818181818
aa(lp2231
F0.17647058823529413
aF0.11764705882352941
aF0.7058823529411765
aa(lp2232
F0.23333333333333334
aF0.11818181818181818
aF0.6484848484848484
aa(lp2233
F0.10810810810810811
aF0.05405405405405406
aF0.8378378378378378
aa(lp2234
F0.2328767123287671
aF0.0547945205479452
aF0.7123287671232876
aa(lp2235
F0.25735294117647056
aF0.051470588235294115
aF0.6911764705882353
aa(lp2236
F0.3333333333333333
aF0.14035087719298245
aF0.5263157894736842
aa(lp2237
F0.2318840579710145
aF0.17391304347826086
aF0.5942028985507246
aa(lp2238
F0.10126582278481013
aF0.12025316455696203
aF0.7784810126582279
aa(lp2239
F0.16030534351145037
aF0.08396946564885496
aF0.7557251908396947
aa(lp2240
F0.23880597014925373
aF0.09950248756218906
aF0.6616915422885572
aa(lp2241
F0.1796875
aF0.1484375
aF0.671875
aa(lp2242
F0.15942028985507245
aF0.11594202898550725
aF0.7246376811594203
aa(lp2243
F0.23076923076923078
aF0.09615384615384616
aF0.6730769230769231
aa(lp2244
F0.46511627906976744
aF0.18604651162790697
aF0.3488372093023256
aa(lp2245
F0.18604651162790697
aF0.11627906976744186
aF0.6976744186046512
aa(lp2246
F0.17857142857142858
aF0.11904761904761904
aF0.7023809523809523
aa(lp2247
F0.0945945945945946
aF0.08108108108108109
aF0.8243243243243243
aa(lp2248
F0.11594202898550725
aF0.043478260869565216
aF0.8405797101449275
aa(lp2249
F0.3197278911564626
aF0.10204081632653061
aF0.5782312925170068
aa(lp2250
F0.15476190476190477
aF0.125
aF0.7202380952380952
aa(lp2251
F0.14285714285714285
aF0.11904761904761904
aF0.7380952380952381
aa(lp2252
F0.14383561643835616
aF0.06164383561643835
aF0.7945205479452054
aa(lp2253
F0.08433734939759036
aF0.08433734939759036
aF0.8313253012048193
aa(lp2254
F0.12403100775193798
aF0.10852713178294573
aF0.7674418604651163
aa(lp2255
F0.22935779816513763
aF0.1651376146788991
aF0.6055045871559633
aa(lp2256
F0.09734513274336283
aF0.035398230088495575
aF0.8672566371681416
aa(lp2257
F0.16129032258064516
aF0.12903225806451613
aF0.7096774193548387
aa(lp2258
F0.13533834586466165
aF0.11278195488721804
aF0.7518796992481203
aa(lp2259
F0.18571428571428572
aF0.02857142857142857
aF0.7857142857142857
aa(lp2260
F0.23481781376518218
aF0.13360323886639677
aF0.631578947368421
aa(lp2261
F0.425531914893617
aF0.14893617021276595
aF0.425531914893617
aa(lp2262
F0.1917808219178082
aF0.1232876712328767
aF0.684931506849315
aa(lp2263
F0.12941176470588237
aF0.09411764705882353
aF0.7764705882352941
aa(lp2264
F0.10843373493975904
aF0.1686746987951807
aF0.7228915662650602
aa(lp2265
F0.3
aF0.15454545454545454
aF0.5454545454545454
aa(lp2266
F0.05945945945945946
aF0.1837837837837838
aF0.7567567567567568
aa(lp2267
F0.38235294117647056
aF0.08823529411764706
aF0.5294117647058824
aa(lp2268
F0.30158730158730157
aF0.07936507936507936
aF0.6190476190476191
aa(lp2269
F0.006974552309142319
aF0.8326107445805844
aF0.16041470311027334
aa(lp2270
F0.22413793103448276
aF0.05172413793103448
aF0.7241379310344828
aa(lp2271
F0.19230769230769232
aF0.0673076923076923
aF0.7403846153846154
aa(lp2272
F0.20481927710843373
aF0.060240963855421686
aF0.7349397590361446
aa(lp2273
F0.07692307692307693
aF0.06593406593406594
aF0.8571428571428571
aa(lp2274
F0.4838709677419355
aF0.12903225806451613
aF0.3870967741935484
aa(lp2275
F0.07462686567164178
aF0.19402985074626866
aF0.7313432835820896
aa(lp2276
F0.3142857142857143
aF0.08571428571428572
aF0.6
aa(lp2277
F0.2013888888888889
aF0.09722222222222222
aF0.7013888888888888
aa(lp2278
F0.2
aF0.03076923076923077
aF0.7692307692307693
aa(lp2279
F0.15859030837004406
aF0.03524229074889868
aF0.8061674008810573
aa(lp2280
F0.23809523809523808
aF0.15873015873015872
aF0.6031746031746031
aa(lp2281
F0.11214953271028037
aF0.08411214953271028
aF0.8037383177570093
aa(lp2282
F0.43902439024390244
aF0.11219512195121951
aF0.44878048780487806
aa(lp2283
F0.18018018018018017
aF0.16216216216216217
aF0.6576576576576577
aa(lp2284
F0.12121212121212122
aF0.21212121212121213
aF0.6666666666666666
aa(lp2285
F0.0684931506849315
aF0.2191780821917808
aF0.7123287671232876
aa(lp2286
F0.1813953488372093
aF0.09767441860465116
aF0.7209302325581395
aa(lp2287
F0.21739130434782608
aF0.09782608695652174
aF0.6847826086956522
aa(lp2288
F0.16260162601626016
aF0.06504065040650407
aF0.7723577235772358
aa(lp2289
F0.06470588235294118
aF0.11764705882352941
aF0.8176470588235294
aa(lp2290
F0.22535211267605634
aF0.16901408450704225
aF0.6056338028169014
aa(lp2291
F0.07246376811594203
aF0.12318840579710146
aF0.8043478260869565
aa(lp2292
F0.05223880597014925
aF0.0708955223880597
aF0.8768656716417911
aa(lp2293
F0.16314199395770393
aF0.05740181268882175
aF0.7794561933534743
aa(lp2294
F0.25316455696202533
aF0.05063291139240506
aF0.6962025316455697
aa(lp2295
F0.14388489208633093
aF0.1223021582733813
aF0.7338129496402878
aa(lp2296
F0.20987654320987653
aF0.05555555555555555
aF0.7345679012345679
aa(lp2297
F0.17391304347826086
aF0.09937888198757763
aF0.7267080745341615
aa(lp2298
F0.08695652173913043
aF0.08695652173913043
aF0.8260869565217391
aa(lp2299
F0.34615384615384615
aF0.21153846153846154
aF0.4423076923076923
aa(lp2300
F0.1111111111111111
aF0.1
aF0.7888888888888889
aa(lp2301
F0.14
aF0.43
aF0.43
aa(lp2302
F0.2275449101796407
aF0.04790419161676647
aF0.7245508982035929
aa(lp2303
F0.23008849557522124
aF0.07079646017699115
aF0.6991150442477876
aa(lp2304
F0.2711864406779661
aF0.13559322033898305
aF0.5932203389830508
aa(lp2305
F0.22613065326633167
aF0.08542713567839195
aF0.6884422110552764
aa(lp2306
F0.3333333333333333
aF0.022222222222222223
aF0.6444444444444445
aa(lp2307
F0.140625
aF0.10416666666666667
aF0.7552083333333334
aa(lp2308
F0.22058823529411764
aF0.17647058823529413
aF0.6029411764705882
aa(lp2309
F0.13333333333333333
aF0.26666666666666666
aF0.6
aa(lp2310
F0.55
aF0.1
aF0.35
aa(lp2311
F0.07886323268206039
aF0.05541740674955595
aF0.8657193605683836
aa(lp2312
F0.12727272727272726
aF0.23636363636363636
aF0.6363636363636364
aa(lp2313
F0.22157434402332363
aF0.06705539358600583
aF0.7113702623906706
aa(lp2314
F0.25
aF0.08333333333333333
aF0.6666666666666666
aa(lp2315
F0.3023255813953488
aF0.13953488372093023
aF0.5581395348837209
aa(lp2316
F0.4393939393939394
aF0.045454545454545456
aF0.5151515151515151
aa(lp2317
F0.13513513513513514
aF0.10810810810810811
aF0.7567567567567568
aa(lp2318
F0.14285714285714285
aF0.24489795918367346
aF0.6122448979591837
aa(lp2319
F0.12745098039215685
aF0.19607843137254902
aF0.6764705882352942
aa(lp2320
F0.1984126984126984
aF0.07142857142857142
aF0.7301587301587301
aa(lp2321
F0.2222222222222222
aF0.15873015873015872
aF0.6190476190476191
aa(lp2322
F0.26119402985074625
aF0.07462686567164178
aF0.664179104477612
aa(lp2323
F0.13157894736842105
aF0.17105263157894737
aF0.6973684210526315
aa(lp2324
F0.26
aF0.15
aF0.59
aa(lp2325
F0.176
aF0.296
aF0.528
aa(lp2326
F0.14388489208633093
aF0.10071942446043165
aF0.7553956834532374
aa(lp2327
F0.2619047619047619
aF0.047619047619047616
aF0.6904761904761905
aa(lp2328
F0.41964285714285715
aF0.08928571428571429
aF0.49107142857142855
aa(lp2329
F0.08450704225352113
aF0.14084507042253522
aF0.7746478873239436
aa(lp2330
F0.24561403508771928
aF0.03508771929824561
aF0.7192982456140351
aa(lp2331
F0.31746031746031744
aF0.09523809523809523
aF0.5873015873015873
aa(lp2332
F0.18571428571428572
aF0.11428571428571428
aF0.7
aa(lp2333
F0.1330049261083744
aF0.06896551724137931
aF0.7980295566502463
aa(lp2334
F0.26
aF0.09
aF0.65
aa(lp2335
F0.06875584658559401
aF0.08652946679139382
aF0.8447146866230122
aa(lp2336
F0.22988505747126436
aF0.08620689655172414
aF0.6839080459770115
aa(lp2337
F0.4
aF0.16
aF0.44
aa(lp2338
F0.16393442622950818
aF0.19672131147540983
aF0.639344262295082
aa(lp2339
F0.4434782608695652
aF0.10434782608695652
aF0.45217391304347826
aa(lp2340
F0.022222222222222223
aF0.4222222222222222
aF0.5555555555555556
aa(lp2341
F0.25842696629213485
aF0.14606741573033707
aF0.5955056179775281
aa(lp2342
F0.3225806451612903
aF0.12903225806451613
aF0.5483870967741935
aa(lp2343
F0.475
aF0.075
aF0.45
aa(lp2344
F0.2169811320754717
aF0.12264150943396226
aF0.660377358490566
aa(lp2345
F0.29411764705882354
aF0.029411764705882353
aF0.6764705882352942
aa(lp2346
F0.11764705882352941
aF0.04201680672268908
aF0.8403361344537815
aa(lp2347
F0.08391608391608392
aF0.11888111888111888
aF0.7972027972027972
aa(lp2348
F0.20754716981132076
aF0.27358490566037735
aF0.5188679245283019
aa(lp2349
F0.08064516129032258
aF0.3548387096774194
aF0.5645161290322581
aa(lp2350
F0.16326530612244897
aF0.1836734693877551
aF0.6530612244897959
aa(lp2351
F0.24427480916030533
aF0.04580152671755725
aF0.7099236641221374
aa(lp2352
F0.3076923076923077
aF0.10256410256410256
aF0.5897435897435898
aa(lp2353
F0.1095890410958904
aF0.136986301369863
aF0.7534246575342466
aa(lp2354
F0.16062176165803108
aF0.06735751295336788
aF0.772020725388601
aa(lp2355
F0.22807017543859648
aF0.2631578947368421
aF0.5087719298245614
aa(lp2356
F0.1774193548387097
aF0.056451612903225805
aF0.7661290322580645
aa(lp2357
F0.23880597014925373
aF0.14925373134328357
aF0.6119402985074627
aa(lp2358
F0.03
aF0.17
aF0.8
aa(lp2359
F0.25
aF0.3076923076923077
aF0.4423076923076923
aa(lp2360
F0.05283960890368213
aF0.1422924901185771
aF0.8048679009777407
aa(lp2361
F0.23529411764705882
aF0.014705882352941176
aF0.75
aa(lp2362
F0.15789473684210525
aF0.3684210526315789
aF0.47368421052631576
aa(lp2363
F0.3333333333333333
aF0.12698412698412698
aF0.5396825396825397
aa(lp2364
F0.2459016393442623
aF0.01639344262295082
aF0.7377049180327869
aa(lp2365
F0.3
aF0.06363636363636363
aF0.6363636363636364
aa(lp2366
F0.16071428571428573
aF0.16071428571428573
aF0.6785714285714286
aa(lp2367
F0.15384615384615385
aF0.0989010989010989
aF0.7472527472527473
aa(lp2368
F0.16167664670658682
aF0.09580838323353294
aF0.7425149700598802
aa(lp2369
F0.19117647058823528
aF0.058823529411764705
aF0.75
aa(lp2370
F0.2839506172839506
aF0.06172839506172839
aF0.654320987654321
aa(lp2371
F0.3010752688172043
aF0.053763440860215055
aF0.6451612903225806
aa(lp2372
F0.16
aF0.2
aF0.64
aa(lp2373
F0.1076923076923077
aF0.08461538461538462
aF0.8076923076923077
aa(lp2374
F0.42696629213483145
aF0.06741573033707865
aF0.5056179775280899
aa(lp2375
F0.10256410256410256
aF0.09743589743589744
aF0.8
aa(lp2376
F0.35051546391752575
aF0.16494845360824742
aF0.4845360824742268
aa(lp2377
F0.10526315789473684
aF0.15460526315789475
aF0.7401315789473685
aa(lp2378
F0.22916666666666666
aF0.10416666666666667
aF0.6666666666666666
aa(lp2379
F0.136986301369863
aF0.0684931506849315
aF0.7945205479452054
aa(lp2380
F0.45714285714285713
aF0.05714285714285714
aF0.4857142857142857
aa(lp2381
F0.1794871794871795
aF0.09401709401709402
aF0.7264957264957265
aa(lp2382
F0.32857142857142857
aF0.02857142857142857
aF0.6428571428571429
aa(lp2383
F0.22727272727272727
aF0.11212121212121212
aF0.6606060606060606
aa(lp2384
F0.3023255813953488
aF0.03488372093023256
aF0.6627906976744186
aa(lp2385
F0.18181818181818182
aF0.18181818181818182
aF0.6363636363636364
aa(lp2386
F0.10891089108910891
aF0.21287128712871287
aF0.6782178217821783
aa(lp2387
F0.1736842105263158
aF0.12631578947368421
aF0.7
aa(lp2388
F0.30303030303030304
aF0.09090909090909091
aF0.6060606060606061
aa(lp2389
F0.08374930671103716
aF0.07182473655019413
aF0.8444259567387687
aa(lp2390
F0.175
aF0.075
aF0.75
aa(lp2391
F0.11842105263157894
aF0.3026315789473684
aF0.5789473684210527
aa(lp2392
F0.11702127659574468
aF0.031914893617021274
aF0.851063829787234
aa(lp2393
F0.12080536912751678
aF0.174496644295302
aF0.7046979865771812
aa(lp2394
F0.25316455696202533
aF0.11392405063291139
aF0.6329113924050633
aa(lp2395
F0.2
aF0.06315789473684211
aF0.7368421052631579
aa(lp2396
F0.23809523809523808
aF0.2698412698412698
aF0.49206349206349204
aa(lp2397
F0.23684210526315788
aF0.07894736842105263
aF0.6842105263157895
aa(lp2398
F0.051470588235294115
aF0.20588235294117646
aF0.7426470588235294
aa(lp2399
F0.09292035398230089
aF0.13274336283185842
aF0.7743362831858407
aa(lp2400
F0.37142857142857144
aF0.08571428571428572
aF0.5428571428571428
aa(lp2401
F0.1111111111111111
aF0.16666666666666666
aF0.7222222222222222
aa(lp2402
F0.24285714285714285
aF0.06666666666666667
aF0.6904761904761905
aa(lp2403
F0.22580645161290322
aF0.16129032258064516
aF0.6129032258064516
aa(lp2404
F0.017241379310344827
aF0.12931034482758622
aF0.853448275862069
aa(lp2405
F0.29411764705882354
aF0.04201680672268908
aF0.6638655462184874
aa(lp2406
F0.16194331983805668
aF0.03643724696356275
aF0.8016194331983806
aa(lp2407
F0.19631901840490798
aF0.10429447852760736
aF0.6993865030674846
aa(lp2408
F0.1834319526627219
aF0.10059171597633136
aF0.7159763313609467
aa(lp2409
F0.25
aF0.19444444444444445
aF0.5555555555555556
aa(lp2410
F0.2857142857142857
aF0.10714285714285714
aF0.6071428571428571
aa(lp2411
F0.14414414414414414
aF0.08108108108108109
aF0.7747747747747747
aa(lp2412
F0.21212121212121213
aF0.25252525252525254
aF0.5353535353535354
aa(lp2413
F0.24615384615384617
aF0.09230769230769231
aF0.6615384615384615
aa(lp2414
F0.3130434782608696
aF0.06956521739130435
aF0.6173913043478261
aa(lp2415
F0.24324324324324326
aF0.2702702702702703
aF0.4864864864864865
aa(lp2416
F0.07602339181286549
aF0.17543859649122806
aF0.7485380116959064
aa(lp2417
F0.2222222222222222
aF0.19047619047619047
aF0.5873015873015873
aa(lp2418
F0.04819277108433735
aF0.04819277108433735
aF0.9036144578313253
aa(lp2419
F0.16037735849056603
aF0.03773584905660377
aF0.8018867924528302
aa(lp2420
F0.13253012048192772
aF0.14457831325301204
aF0.7228915662650602
aa(lp2421
F0.059548254620123205
aF0.07186858316221766
aF0.8685831622176592
aa(lp2422
F0.1891891891891892
aF0.22297297297297297
aF0.5878378378378378
aa(lp2423
F0.12222222222222222
aF0.08888888888888889
aF0.7888888888888889
aa(lp2424
F0.15384615384615385
aF0.13846153846153847
aF0.7076923076923077
aa(lp2425
F0.2111111111111111
aF0.07777777777777778
aF0.7111111111111111
aa(lp2426
F0.23255813953488372
aF0.08139534883720931
aF0.686046511627907
aa(lp2427
F0.17142857142857143
aF0.08571428571428572
aF0.7428571428571429
aa(lp2428
F0.3142857142857143
aF0.24285714285714285
aF0.44285714285714284
aa(lp2429
F0.22
aF0.2
aF0.58
aa(lp2430
F0.16981132075471697
aF0.09433962264150944
aF0.7358490566037735
aa(lp2431
F0.109375
aF0.15625
aF0.734375
aa(lp2432
F0.25
aF0.075
aF0.675
aa(lp2433
F0.265625
aF0.140625
aF0.59375
aa(lp2434
F0.27350427350427353
aF0.09401709401709402
aF0.6324786324786325
aa(lp2435
F0.15151515151515152
aF0.30303030303030304
aF0.5454545454545454
aa(lp2436
F0.25882352941176473
aF0.047058823529411764
aF0.6941176470588235
aa(lp2437
F0.13333333333333333
aF0.24444444444444444
aF0.6222222222222222
aa(lp2438
F0.10666666666666667
aF0.08
aF0.8133333333333334
aa(lp2439
F0.3384615384615385
aF0.1076923076923077
aF0.5538461538461539
aa(lp2440
F0.25903614457831325
aF0.030120481927710843
aF0.7108433734939759
aa(lp2441
F0.19736842105263158
aF0.06578947368421052
aF0.7368421052631579
aa(lp2442
F0.1827956989247312
aF0.10752688172043011
aF0.7096774193548387
aa(lp2443
F0.17777777777777778
aF0.1
aF0.7222222222222222
aa(lp2444
F0.23333333333333334
aF0.13333333333333333
aF0.6333333333333333
aa(lp2445
F0.14893617021276595
aF0.06382978723404255
aF0.7872340425531915
aa(lp2446
F0.2647058823529412
aF0.029411764705882353
aF0.7058823529411765
aa(lp2447
F0.10714285714285714
aF0.4642857142857143
aF0.42857142857142855
aa(lp2448
F0.10576923076923077
aF0.11538461538461539
aF0.7788461538461539
aa(lp2449
F0.2711864406779661
aF0.11299435028248588
aF0.615819209039548
aa(lp2450
F0.10344827586206896
aF0.10344827586206896
aF0.7931034482758621
aa(lp2451
F0.37037037037037035
aF0.2962962962962963
aF0.3333333333333333
aa(lp2452
F0.04551920341394026
aF0.5820293978188715
aF0.37245139876718825
aa(lp2453
F0.07526881720430108
aF0.22580645161290322
aF0.6989247311827957
aa(lp2454
F0.34615384615384615
aF0.11538461538461539
aF0.5384615384615384
aa(lp2455
F0.22162162162162163
aF0.08648648648648649
aF0.6918918918918919
aa(lp2456
F0.10775862068965517
aF0.09051724137931035
aF0.8017241379310345
aa(lp2457
F0.11926605504587157
aF0.1651376146788991
aF0.7155963302752294
aa(lp2458
F0.1935483870967742
aF0.27419354838709675
aF0.532258064516129
aa(lp2459
F0.14432989690721648
aF0.10309278350515463
aF0.7525773195876289
aa(lp2460
F0.19626168224299065
aF0.1588785046728972
aF0.6448598130841121
aa(lp2461
F0.22413793103448276
aF0.1896551724137931
aF0.5862068965517241
aa(lp2462
F0.29411764705882354
aF0.11764705882352941
aF0.5882352941176471
aa(lp2463
F0.15
aF0.15
aF0.7
aa(lp2464
F0.15527950310559005
aF0.11180124223602485
aF0.7329192546583851
aa(lp2465
F0.10603290676416818
aF0.054844606946983544
aF0.8391224862888482
aa(lp2466
F0.125
aF0.1336206896551724
aF0.7413793103448276
aa(lp2467
F0.08333333333333333
aF0.19444444444444445
aF0.7222222222222222
aa(lp2468
F0.3939393939393939
aF0.12121212121212122
aF0.48484848484848486
aa(lp2469
F0.09855453350854139
aF0.09329829172141918
aF0.8081471747700394
aa(lp2470
F0.08035714285714286
aF0.20089285714285715
aF0.71875
aa(lp2471
F0.16
aF0.18
aF0.66
aa(lp2472
F0.1320754716981132
aF0.22641509433962265
aF0.6415094339622641
aa(lp2473
F0.07784431137724551
aF0.0658682634730539
aF0.8562874251497006
aa(lp2474
F0.14782608695652175
aF0.043478260869565216
aF0.808695652173913
aa(lp2475
F0.0867579908675799
aF0.2191780821917808
aF0.6940639269406392
aa(lp2476
F0.3157894736842105
aF0.14035087719298245
aF0.543859649122807
aa(lp2477
F0.1056338028169014
aF0.18309859154929578
aF0.7112676056338029
aa(lp2478
F0.16
aF0.13333333333333333
aF0.7066666666666667
aa(lp2479
F0.15517241379310345
aF0.21551724137931033
aF0.6293103448275862
aa(lp2480
F0.17721518987341772
aF0.08860759493670886
aF0.7341772151898734
aa(lp2481
F0.25
aF0.05
aF0.7
aa(lp2482
F0.04424778761061947
aF0.10619469026548672
aF0.8495575221238938
aa(lp2483
F0.1262135922330097
aF0.038834951456310676
aF0.8349514563106796
aa(lp2484
F0.17857142857142858
aF0.23809523809523808
aF0.5833333333333334
aa(lp2485
F0.24
aF0.045
aF0.715
aa(lp2486
F0.0851063829787234
aF0.10638297872340426
aF0.8085106382978723
aa(lp2487
F0.10062893081761007
aF0.0440251572327044
aF0.8553459119496856
aa(lp2488
F0.34375
aF0.1875
aF0.46875
aa(lp2489
F0.24390243902439024
aF0.024390243902439025
aF0.7317073170731707
aa(lp2490
F0.22727272727272727
aF0.19318181818181818
aF0.5795454545454546
aa(lp2491
F0.06976744186046512
aF0.18023255813953487
aF0.75
aa(lp2492
F0.5377358490566038
aF0.12264150943396226
aF0.33962264150943394
aa(lp2493
F0.15151515151515152
aF0.19696969696969696
aF0.6515151515151515
aa(lp2494
F0.11940298507462686
aF0.13432835820895522
aF0.746268656716418
aa(lp2495
F0.20833333333333334
aF0.08333333333333333
aF0.7083333333333334
aa(lp2496
F0.3108108108108108
aF0.08108108108108109
aF0.6081081081081081
aa(lp2497
F0.1651376146788991
aF0.05963302752293578
aF0.7752293577981652
aa(lp2498
F0.25
aF0.2
aF0.55
aa(lp2499
F0.13186813186813187
aF0.37362637362637363
aF0.4945054945054945
aa(lp2500
F0.23972602739726026
aF0.04452054794520548
aF0.7157534246575342
aa(lp2501
F0.2
aF0.15
aF0.65
aa(lp2502
F0.3229166666666667
aF0.0625
aF0.6145833333333334
aa(lp2503
F0.336734693877551
aF0.20408163265306123
aF0.45918367346938777
aa(lp2504
F0.17209302325581396
aF0.018604651162790697
aF0.8093023255813954
aa(lp2505
F0.09375
aF0.21875
aF0.6875
aa(lp2506
F0.21176470588235294
aF0.08823529411764706
aF0.7
aa(lp2507
F0.1111111111111111
aF0.16666666666666666
aF0.7222222222222222
aa(lp2508
F0.08196721311475409
aF0.13114754098360656
aF0.7868852459016393
aa(lp2509
F0.08333333333333333
aF0.12777777777777777
aF0.7888888888888889
aa(lp2510
F0.3728813559322034
aF0.05084745762711865
aF0.576271186440678
aa(lp2511
F0.3
aF0.06666666666666667
aF0.6333333333333333
aa(lp2512
F0.3684210526315789
aF0.2631578947368421
aF0.3684210526315789
aa(lp2513
F0.176056338028169
aF0.04225352112676056
aF0.7816901408450704
aa(lp2514
F0.18115942028985507
aF0.08695652173913043
aF0.7318840579710145
aa(lp2515
F0.17857142857142858
aF0.07142857142857142
aF0.75
aa(lp2516
F0.16279069767441862
aF0.12790697674418605
aF0.7093023255813954
aa(lp2517
F0.2604166666666667
aF0.08333333333333333
aF0.65625
aa(lp2518
F0.043478260869565216
aF0.06521739130434782
aF0.8913043478260869
aa(lp2519
F0.06060606060606061
aF0.31313131313131315
aF0.6262626262626263
aa(lp2520
F0.32142857142857145
aF0.25
aF0.42857142857142855
aa(lp2521
F0.28
aF0.112
aF0.608
aa(lp2522
F0.22340425531914893
aF0.23404255319148937
aF0.5425531914893617
aa(lp2523
F0.1111111111111111
aF0.08888888888888889
aF0.8
aa(lp2524
F0.25
aF0.0625
aF0.6875
aa(lp2525
F0.19285714285714287
aF0.2
aF0.6071428571428571
aa(lp2526
F0.2198581560283688
aF0.04964539007092199
aF0.7304964539007093
aa(lp2527
F0.39864864864864863
aF0.12162162162162163
aF0.4797297297297297
aa(lp2528
F0.175
aF0.0375
aF0.7875
aa(lp2529
F0.5348837209302325
aF0.18604651162790697
aF0.27906976744186046
aa(lp2530
F0.13333333333333333
aF0.13333333333333333
aF0.7333333333333333
aa(lp2531
F0.19047619047619047
aF0.2857142857142857
aF0.5238095238095238
aa(lp2532
F0.20224719101123595
aF0.25842696629213485
aF0.5393258426966292
aa(lp2533
F0.23255813953488372
aF0.13953488372093023
aF0.627906976744186
aa(lp2534
F0.3013698630136986
aF0.3287671232876712
aF0.3698630136986301
aa(lp2535
F0.19491525423728814
aF0.03389830508474576
aF0.7711864406779662
aa(lp2536
F0.4084507042253521
aF0.2112676056338028
aF0.38028169014084506
aa(lp2537
F0.19491525423728814
aF0.11016949152542373
aF0.6949152542372882
aa(lp2538
F0.14545454545454545
aF0.05454545454545454
aF0.8
aa(lp2539
F0.07894736842105263
aF0.11842105263157894
aF0.8026315789473685
aa(lp2540
F0.21739130434782608
aF0.1956521739130435
aF0.5869565217391305
aa(lp2541
F0.23076923076923078
aF0.15384615384615385
aF0.6153846153846154
aa(lp2542
F0.024
aF0.27
aF0.706
aa(lp2543
F0.2549019607843137
aF0.09803921568627451
aF0.6470588235294118
aa(lp2544
F0.3505535055350554
aF0.12915129151291513
aF0.5202952029520295
aa(lp2545
F0.1271186440677966
aF0.05084745762711865
aF0.8220338983050848
aa(lp2546
F0.06976744186046512
aF0.1511627906976744
aF0.7790697674418605
aa(lp2547
F0.3111111111111111
aF0.13333333333333333
aF0.5555555555555556
aa(lp2548
F0.125
aF0.4791666666666667
aF0.3958333333333333
aa(lp2549
F0.14634146341463414
aF0.4634146341463415
aF0.3902439024390244
aa(lp2550
F0.021739130434782608
aF0.10869565217391304
aF0.8695652173913043
aa(lp2551
F0.014492753623188406
aF0.21739130434782608
aF0.7681159420289855
aa(lp2552
F0.205607476635514
aF0.056074766355140186
aF0.7383177570093458
aa(lp2553
F0.06862745098039216
aF0.10784313725490197
aF0.8235294117647058
aa(lp2554
F0.0625
aF0.375
aF0.5625
aa(lp2555
F0.15384615384615385
aF0.07692307692307693
aF0.7692307692307693
aa(lp2556
F0.21333333333333335
aF0.06
aF0.7266666666666667
aa(lp2557
F0.17142857142857143
aF0.06285714285714286
aF0.7657142857142857
aa(lp2558
F0.18
aF0.2
aF0.62
aa(lp2559
F0.12195121951219512
aF0.10975609756097561
aF0.7682926829268293
aa(lp2560
F0.26104417670682734
aF0.04819277108433735
aF0.6907630522088354
aa(lp2561
F0.19642857142857142
aF0.07142857142857142
aF0.7321428571428571
aa(lp2562
F0.1206896551724138
aF0.05172413793103448
aF0.8275862068965517
aa(lp2563
F0.2073170731707317
aF0.036585365853658534
aF0.7560975609756098
aa(lp2564
F0.1414141414141414
aF0.0707070707070707
aF0.7878787878787878
aa(lp2565
F0.18309859154929578
aF0.11267605633802817
aF0.704225352112676
aa(lp2566
F0.27956989247311825
aF0.08602150537634409
aF0.6344086021505376
aa(lp2567
F0.43859649122807015
aF0.07017543859649122
aF0.49122807017543857
aa(lp2568
F0.19469026548672566
aF0.20353982300884957
aF0.6017699115044248
aa(lp2569
F0.14814814814814814
aF0.08024691358024691
aF0.7716049382716049
aa(lp2570
F0.1095890410958904
aF0.136986301369863
aF0.7534246575342466
aa(lp2571
F0.16058394160583941
aF0.0948905109489051
aF0.7445255474452555
aa(lp2572
F0.09523809523809523
aF0.12554112554112554
aF0.7792207792207793
aa(lp2573
F0.21875
aF0.03125
aF0.75
aa(lp2574
F0.08823529411764706
aF0.04411764705882353
aF0.8676470588235294
aa(lp2575
F0.1956521739130435
aF0.06521739130434782
aF0.7391304347826086
aa(lp2576
F0.20588235294117646
aF0.051470588235294115
aF0.7426470588235294
aa(lp2577
F0.1927710843373494
aF0.04819277108433735
aF0.7590361445783133
aa(lp2578
F0.34684684684684686
aF0.04504504504504504
aF0.6081081081081081
aa(lp2579
F0.21354166666666666
aF0.15625
aF0.6302083333333334
aa(lp2580
F0.10526315789473684
aF0.3333333333333333
aF0.5614035087719298
aa(lp2581
F0.36363636363636365
aF0.2159090909090909
aF0.42045454545454547
aa(lp2582
F0.25263157894736843
aF0.042105263157894736
aF0.7052631578947368
aa(lp2583
F0.21875
aF0.09375
aF0.6875
aa(lp2584
F0.2087912087912088
aF0.10989010989010989
aF0.6813186813186813
aa(lp2585
F0.25806451612903225
aF0.12903225806451613
aF0.6129032258064516
aa(lp2586
F0.19444444444444445
aF0.046296296296296294
aF0.7592592592592593
aa(lp2587
F0.28421052631578947
aF0.07368421052631578
aF0.6421052631578947
aa(lp2588
F0.1951219512195122
aF0.17073170731707318
aF0.6341463414634146
aa(lp2589
F0.1
aF0.11666666666666667
aF0.7833333333333333
aa(lp2590
F0.08823529411764706
aF0.125
aF0.7867647058823529
aa(lp2591
F0.2857142857142857
aF0.2653061224489796
aF0.4489795918367347
aa(lp2592
F0.37735849056603776
aF0.09433962264150944
aF0.5283018867924528
aa(lp2593
F0.1411764705882353
aF0.2823529411764706
aF0.5764705882352941
aa(lp2594
F0.26666666666666666
aF0.1
aF0.6333333333333333
aa(lp2595
F0.3855421686746988
aF0.20883534136546184
aF0.40562248995983935
aa(lp2596
F0.12941176470588237
aF0.17647058823529413
aF0.6941176470588235
aa(lp2597
F0.3023255813953488
aF0.11627906976744186
aF0.5813953488372093
aa(lp2598
F0.08056872037914692
aF0.1895734597156398
aF0.7298578199052133
aa(lp2599
F0.08974358974358974
aF0.05128205128205128
aF0.8589743589743589
aa(lp2600
F0.22807017543859648
aF0.14912280701754385
aF0.6228070175438597
aa(lp2601
F0.36666666666666664
aF0.1
aF0.5333333333333333
aa(lp2602
F0.2698412698412698
aF0.07936507936507936
aF0.6507936507936508
aa(lp2603
F0.13986013986013987
aF0.1258741258741259
aF0.7342657342657343
aa(lp2604
F0.08450704225352113
aF0.056338028169014086
aF0.8591549295774648
aa(lp2605
F0.1650485436893204
aF0.21359223300970873
aF0.6213592233009708
aa(lp2606
F0.30666666666666664
aF0.13333333333333333
aF0.56
aa(lp2607
F0.135678391959799
aF0.1306532663316583
aF0.7336683417085427
aa(lp2608
F0.30434782608695654
aF0.10869565217391304
aF0.5869565217391305
aa(lp2609
F0.23076923076923078
aF0.1076923076923077
aF0.6615384615384615
aa(lp2610
F0.07112970711297072
aF0.14644351464435146
aF0.7824267782426778
aa(lp2611
F0.1888111888111888
aF0.08391608391608392
aF0.7272727272727273
aa(lp2612
F0.18
aF0.32
aF0.5
aa(lp2613
F0.24257425742574257
aF0.054455445544554455
aF0.7029702970297029
aa(lp2614
F0.1746031746031746
aF0.14285714285714285
aF0.6825396825396826
aa(lp2615
F0.12903225806451613
aF0.03225806451612903
aF0.8387096774193549
aa(lp2616
F0.13953488372093023
aF0.13953488372093023
aF0.7209302325581395
aa(lp2617
F0.09009009009009009
aF0.13513513513513514
aF0.7747747747747747
aa(lp2618
F0.21568627450980393
aF0.058823529411764705
aF0.7254901960784313
aa(lp2619
F0.23076923076923078
aF0.13846153846153847
aF0.6307692307692307
aa(lp2620
F0.09482758620689655
aF0.08620689655172414
aF0.8189655172413793
aa(lp2621
F0.23015873015873015
aF0.07936507936507936
aF0.6904761904761905
aa(lp2622
F0.0851063829787234
aF0.0851063829787234
aF0.8297872340425532
aa(lp2623
F0.20833333333333334
aF0.08333333333333333
aF0.7083333333333334
aa(lp2624
F0.045158174354020766
aF0.5839169282781936
aF0.37092489736778556
aa(lp2625
F0.16
aF0.14
aF0.7
aa(lp2626
F0.21794871794871795
aF0.19230769230769232
aF0.5897435897435898
aa(lp2627
F0.09836065573770492
aF0.18032786885245902
aF0.7213114754098361
aa(lp2628
F0.22935779816513763
aF0.10091743119266056
aF0.6697247706422018
aa(lp2629
F0.13157894736842105
aF0.15789473684210525
aF0.7105263157894737
aa(lp2630
F0.14285714285714285
aF0.10714285714285714
aF0.75
aa(lp2631
F0.24
aF0.12
aF0.64
aa(lp2632
F0.2054794520547945
aF0.1917808219178082
aF0.6027397260273972
aa(lp2633
F0.09523809523809523
aF0.10476190476190476
aF0.8
aa(lp2634
F0.1111111111111111
aF0.1111111111111111
aF0.7777777777777778
aa(lp2635
F0.3492063492063492
aF0.015873015873015872
aF0.6349206349206349
aa(lp2636
F0.11538461538461539
aF0.1111111111111111
aF0.7735042735042735
aa(lp2637
F0.10891089108910891
aF0.10891089108910891
aF0.7821782178217822
aa(lp2638
F0.21428571428571427
aF0.13392857142857142
aF0.6517857142857143
aa(lp2639
F0.06
aF0.24
aF0.7
aa(lp2640
F0.16666666666666666
aF0.08333333333333333
aF0.75
aa(lp2641
F0.7894736842105263
aF0.07894736842105263
aF0.13157894736842105
aa(lp2642
F0.24175824175824176
aF0.12087912087912088
aF0.6373626373626373
aa(lp2643
F0.1780821917808219
aF0.1506849315068493
aF0.6712328767123288
aa(lp2644
F0.17916666666666667
aF0.08333333333333333
aF0.7375
aa(lp2645
F0.34532374100719426
aF0.1079136690647482
aF0.5467625899280576
aa(lp2646
F0.2894736842105263
aF0.09210526315789473
aF0.618421052631579
aa(lp2647
F0.07462686567164178
aF0.07462686567164178
aF0.8507462686567164
aa(lp2648
F0.1956521739130435
aF0.17391304347826086
aF0.6304347826086957
aa(lp2649
F0.1111111111111111
aF0.21052631578947367
aF0.6783625730994152
aa(lp2650
F0.09615384615384616
aF0.11538461538461539
aF0.7884615384615384
aa(lp2651
F0.24
aF0.36
aF0.4
aa(lp2652
F0.3627450980392157
aF0.049019607843137254
aF0.5882352941176471
aa(lp2653
F0.17482517482517482
aF0.1048951048951049
aF0.7202797202797203
aa(lp2654
F0.1206896551724138
aF0.0603448275862069
aF0.8189655172413793
aa(lp2655
F0.2887700534759358
aF0.0481283422459893
aF0.6631016042780749
aa(lp2656
F0.2737430167597765
aF0.0670391061452514
aF0.659217877094972
aa(lp2657
F0.18181818181818182
aF0.10227272727272728
aF0.7159090909090909
aa(lp2658
F0.08917197452229299
aF0.22929936305732485
aF0.6815286624203821
aa(lp2659
F0.3924050632911392
aF0.12658227848101267
aF0.4810126582278481
aa(lp2660
F0.13297872340425532
aF0.026595744680851064
aF0.8404255319148937
aa(lp2661
F0.2222222222222222
aF0.08888888888888889
aF0.6888888888888889
aa(lp2662
F0.23728813559322035
aF0.1016949152542373
aF0.6610169491525424
aa(lp2663
F0.1839080459770115
aF0.19540229885057472
aF0.6206896551724138
aa(lp2664
F0.02748091603053435
aF0.10141766630316248
aF0.8711014176663031
aa(lp2665
F0.26635514018691586
aF0.04205607476635514
aF0.6915887850467289
aa(lp2666
F0.1
aF0.125
aF0.775
aa(lp2667
F0.18823529411764706
aF0.18823529411764706
aF0.6235294117647059
aa(lp2668
F0.296875
aF0.046875
aF0.65625
aa(lp2669
F0.30612244897959184
aF0.10204081632653061
aF0.5918367346938775
aa(lp2670
F0.1729490022172949
aF0.057649667405764965
aF0.7694013303769401
aa(lp2671
F0.2604166666666667
aF0.08333333333333333
aF0.65625
aa(lp2672
F0.06296851574212893
aF0.10194902548725637
aF0.8350824587706147
aa(lp2673
F0.2727272727272727
aF0.050505050505050504
aF0.6767676767676768
aa(lp2674
F0.03825136612021858
aF0.08196721311475409
aF0.8797814207650273
aa(lp2675
F0.19858156028368795
aF0.03546099290780142
aF0.7659574468085106
aa(lp2676
F0.13043478260869565
aF0.07453416149068323
aF0.7950310559006211
aa(lp2677
F0.13333333333333333
aF0.05333333333333334
aF0.8133333333333334
aa(lp2678
F0.06615776081424936
aF0.23155216284987276
aF0.7022900763358778
aa(lp2679
F0.325
aF0.15
aF0.525
aa(lp2680
F0.35
aF0.0125
aF0.6375
aa(lp2681
F0.41935483870967744
aF0.1935483870967742
aF0.3870967741935484
aa(lp2682
F0.16666666666666666
aF0.2037037037037037
aF0.6296296296296297
aa(lp2683
F0.10032362459546926
aF0.11650485436893204
aF0.7831715210355987
aa(lp2684
F0.1694915254237288
aF0.03389830508474576
aF0.7966101694915254
aa(lp2685
F0.16666666666666666
aF0.12962962962962962
aF0.7037037037037037
aa(lp2686
F0.13372093023255813
aF0.09302325581395349
aF0.7732558139534884
aa(lp2687
F0.026881720430107527
aF0.053763440860215055
aF0.9193548387096774
aa(lp2688
F0.23529411764705882
aF0.1411764705882353
aF0.6235294117647059
aa(lp2689
F0.3333333333333333
aF0.1111111111111111
aF0.5555555555555556
aa(lp2690
F0.19230769230769232
aF0.057692307692307696
aF0.75
aa(lp2691
F0.03571428571428571
aF0.10714285714285714
aF0.8571428571428571
aa(lp2692
F0.24299065420560748
aF0.11214953271028037
aF0.6448598130841121
aa(lp2693
F0.2916666666666667
aF0.0625
aF0.6458333333333334
aa(lp2694
F0.24509803921568626
aF0.12745098039215685
aF0.6274509803921569
aa(lp2695
F0.21794871794871795
aF0.08974358974358974
aF0.6923076923076923
aa(lp2696
F0.09154929577464789
aF0.19718309859154928
aF0.7112676056338029
aa(lp2697
F0.06
aF0.055
aF0.885
aa(lp2698
F0.07766990291262135
aF0.14563106796116504
aF0.7766990291262136
aa(lp2699
F0.0712166172106825
aF0.13353115727002968
aF0.7952522255192879
aa(lp2700
F0.09375
aF0.09375
aF0.8125
aa(lp2701
F0.17177914110429449
aF0.13496932515337423
aF0.6932515337423313
aa(lp2702
F0.2831858407079646
aF0.07964601769911504
aF0.6371681415929203
aa(lp2703
F0.2549019607843137
aF0.13725490196078433
aF0.6078431372549019
aa(lp2704
F0.15789473684210525
aF0.21052631578947367
aF0.631578947368421
aa(lp2705
F0.10843373493975904
aF0.06626506024096386
aF0.8253012048192772
aa(lp2706
F0.1885668916236602
aF0.08296943231441048
aF0.7284636760619293
aa(lp2707
F0.4528301886792453
aF0.1320754716981132
aF0.41509433962264153
aa(lp2708
F0.3409090909090909
aF0.09090909090909091
aF0.5681818181818182
aa(lp2709
F0.2125
aF0.175
aF0.6125
aa(lp2710
F0.1875
aF0.17857142857142858
aF0.6339285714285714
aa(lp2711
F0.17391304347826086
aF0.3333333333333333
aF0.4927536231884058
aa(lp2712
F0.27941176470588236
aF0.07352941176470588
aF0.6470588235294118
aa(lp2713
F0.16129032258064516
aF0.2903225806451613
aF0.5483870967741935
aa(lp2714
F0.20967741935483872
aF0.04838709677419355
aF0.7419354838709677
aa(lp2715
F0.1322314049586777
aF0.19008264462809918
aF0.6776859504132231
aa(lp2716
F0.12562814070351758
aF0.035175879396984924
aF0.8391959798994975
aa(lp2717
F0.5376344086021505
aF0.0967741935483871
aF0.3655913978494624
aa(lp2718
F0.16666666666666666
aF0.14285714285714285
aF0.6904761904761905
aa(lp2719
F0.12056737588652482
aF0.16312056737588654
aF0.7163120567375887
aa(lp2720
F0.5217391304347826
aF0.043478260869565216
aF0.43478260869565216
aa(lp2721
F0.27906976744186046
aF0.13953488372093023
aF0.5813953488372093
aa(lp2722
F0.2
aF0.4
aF0.4
aa(lp2723
F0.25
aF0.25
aF0.5
aa(lp2724
F0.20588235294117646
aF0.4117647058823529
aF0.38235294117647056
aa(lp2725
F0.32727272727272727
aF0.11818181818181818
aF0.5545454545454546
aa(lp2726
F0.16346153846153846
aF0.10576923076923077
aF0.7307692307692307
aa(lp2727
F0.1553398058252427
aF0.08737864077669903
aF0.7572815533980582
aa(lp2728
F0.05
aF0.2
aF0.75
aa(lp2729
F0.27710843373493976
aF0.060240963855421686
aF0.6626506024096386
aa(lp2730
F0.24324324324324326
aF0.12612612612612611
aF0.6306306306306306
aa(lp2731
F0.3170731707317073
aF0.14634146341463414
aF0.5365853658536586
aa(lp2732
F0.16793893129770993
aF0.10687022900763359
aF0.7251908396946565
aa(lp2733
F0.20353982300884957
aF0.1592920353982301
aF0.6371681415929203
aa(lp2734
F0.3941176470588235
aF0.08235294117647059
aF0.5235294117647059
aa(lp2735
F0.05201560468140442
aF0.07386215864759428
aF0.8741222366710013
aa(lp2736
F0.16129032258064516
aF0.14516129032258066
aF0.6935483870967742
aa(lp2737
F0.0967741935483871
aF0.03225806451612903
aF0.8709677419354839
aa(lp2738
F0.26717557251908397
aF0.19083969465648856
aF0.5419847328244275
aa(lp2739
F0.31645569620253167
aF0.16455696202531644
aF0.5189873417721519
aa(lp2740
F0.27710843373493976
aF0.13253012048192772
aF0.5903614457831325
aa(lp2741
F0.23809523809523808
aF0.09523809523809523
aF0.6666666666666666
aa(lp2742
F0.1038961038961039
aF0.1038961038961039
aF0.7922077922077922
aa(lp2743
F0.3076923076923077
aF0.1282051282051282
aF0.5641025641025641
aa(lp2744
F0.21568627450980393
aF0.1568627450980392
aF0.6274509803921569
aa(lp2745
F0.3669724770642202
aF0.03669724770642202
aF0.5963302752293578
aa(lp2746
F0.14705882352941177
aF0.16666666666666666
aF0.6862745098039216
aa(lp2747
F0.0847457627118644
aF0.2033898305084746
aF0.711864406779661
aa(lp2748
F0.21774193548387097
aF0.11290322580645161
aF0.6693548387096774
aa(lp2749
F0.313953488372093
aF0.10465116279069768
aF0.5813953488372093
aa(lp2750
F0.040983606557377046
aF0.11065573770491803
aF0.8483606557377049
aa(lp2751
F0.21818181818181817
aF0.045454545454545456
aF0.7363636363636363
aa(lp2752
F0.052121212121212124
aF0.08848484848484849
aF0.8593939393939394
aa(lp2753
F0.28735632183908044
aF0.034482758620689655
aF0.6781609195402298
aa(lp2754
F0.192
aF0.04
aF0.768
aa(lp2755
F0.22857142857142856
aF0.047619047619047616
aF0.7238095238095238
aa(lp2756
F0.23404255319148937
aF0.15602836879432624
aF0.6099290780141844
aa(lp2757
F0.13043478260869565
aF0.057971014492753624
aF0.8115942028985508
aa(lp2758
F0.26136363636363635
aF0.13636363636363635
aF0.6022727272727273
aa(lp2759
F0.20430107526881722
aF0.053763440860215055
aF0.7419354838709677
aa(lp2760
F0.0069592112893872024
aF0.8420645660158516
aF0.15097622269476127
aa.